---
triple:          'arm64-apple-darwin'
binary-path:     '/Users/kirkcharlesniverba/Documents/video_rental_store/main'
relocations:
  - { offsetInCU: 0x4C, offset: 0x4C, size: 0x8, addend: 0x0, symName: __ZN5Video6nextIdE, symObjAddr: 0xD3AC, symBinAddr: 0x100014000, symSize: 0x0 }
  - { offsetInCU: 0x83A3, offset: 0x83A3, size: 0x8, addend: 0x0, symName: __ZNSt3__124__put_character_sequenceB8ue170006IcNS_11char_traitsIcEEEERNS_13basic_ostreamIT_T0_EES7_PKS4_m, symObjAddr: 0x50A0, symBinAddr: 0x100007198, symSize: 0x1EC }
  - { offsetInCU: 0xAF6D, offset: 0xAF6D, size: 0x8, addend: 0x0, symName: __ZNSt3__1lsB8ue170006INS_11char_traitsIcEEEERNS_13basic_ostreamIcT_EES6_PKc, symObjAddr: 0x290, symBinAddr: 0x100002388, symSize: 0x48 }
  - { offsetInCU: 0xAFB3, offset: 0xAFB3, size: 0x8, addend: 0x0, symName: __ZNSt3__17getlineB8ue170006IcNS_11char_traitsIcEENS_9allocatorIcEEEERNS_13basic_istreamIT_T0_EES9_RNS_12basic_stringIS6_S7_T1_EE, symObjAddr: 0x2D8, symBinAddr: 0x1000023D0, symSize: 0x5C }
  - { offsetInCU: 0xB00B, offset: 0xB00B, size: 0x8, addend: 0x0, symName: __ZNSt3__14endlB8ue170006IcNS_11char_traitsIcEEEERNS_13basic_ostreamIT_T0_EES7_, symObjAddr: 0x61C, symBinAddr: 0x100002714, symSize: 0x58 }
  - { offsetInCU: 0xB04B, offset: 0xB04B, size: 0x8, addend: 0x0, symName: __ZNSt3__1lsB8ue170006IcNS_11char_traitsIcEENS_9allocatorIcEEEERNS_13basic_ostreamIT_T0_EES9_RKNS_12basic_stringIS6_S7_T1_EE, symObjAddr: 0x674, symBinAddr: 0x10000276C, symSize: 0x4C }
  - { offsetInCU: 0xB0A3, offset: 0xB0A3, size: 0x8, addend: 0x0, symName: __ZNSt3__1rsB8ue170006IcNS_11char_traitsIcEENS_9allocatorIcEEEERNS_13basic_istreamIT_T0_EES9_RNS_12basic_stringIS6_S7_T1_EE, symObjAddr: 0x904, symBinAddr: 0x1000029FC, symSize: 0x308 }
  - { offsetInCU: 0xB57C, offset: 0xB57C, size: 0x8, addend: 0x0, symName: __ZNSt3__1neB8ue170006ERKNS_16__deque_iteratorI4RentPS1_RS1_PS2_lLl341EEES7_, symObjAddr: 0x2574, symBinAddr: 0x10000466C, symSize: 0x34 }
  - { offsetInCU: 0xB5B9, offset: 0xB5B9, size: 0x8, addend: 0x0, symName: __ZNSt3__1eqB8ue170006ERKNS_16__deque_iteratorI4RentPS1_RS1_PS2_lLl341EEES7_, symObjAddr: 0x28D4, symBinAddr: 0x1000049CC, symSize: 0x30 }
  - { offsetInCU: 0xB5F6, offset: 0xB5F6, size: 0x8, addend: 0x0, symName: __ZNSt3__112__to_addressB8ue170006I4RentEEPT_S3_, symObjAddr: 0x2F7C, symBinAddr: 0x100005074, symSize: 0x14 }
  - { offsetInCU: 0xB62B, offset: 0xB62B, size: 0x8, addend: 0x0, symName: __ZNSt3__119__libcpp_deallocateB8ue170006EPvmm, symObjAddr: 0x30EC, symBinAddr: 0x1000051E4, symSize: 0x30 }
  - { offsetInCU: 0xB673, offset: 0xB673, size: 0x8, addend: 0x0, symName: __ZNSt3__127__do_deallocate_handle_sizeB8ue170006IJEEEvPvmDpT_, symObjAddr: 0x311C, symBinAddr: 0x100005214, symSize: 0x28 }
  - { offsetInCU: 0xB6B1, offset: 0xB6B1, size: 0x8, addend: 0x0, symName: __ZNSt3__124__libcpp_operator_deleteB8ue170006IJPvEEEvDpT_, symObjAddr: 0x3144, symBinAddr: 0x10000523C, symSize: 0x24 }
  - { offsetInCU: 0xB6E6, offset: 0xB6E6, size: 0x8, addend: 0x0, symName: __ZNSt3__112__to_addressB8ue170006IP4RentEEPT_S4_, symObjAddr: 0x33C8, symBinAddr: 0x1000054C0, symSize: 0x14 }
  - { offsetInCU: 0xB71B, offset: 0xB71B, size: 0x8, addend: 0x0, symName: __ZNSt3__1neB8ue170006ERKNS_16__deque_iteratorI8CustomerPS1_RS1_PS2_lLl73EEES7_, symObjAddr: 0x3FC8, symBinAddr: 0x1000060C0, symSize: 0x34 }
  - { offsetInCU: 0xB758, offset: 0xB758, size: 0x8, addend: 0x0, symName: __ZNSt3__1eqB8ue170006ERKNS_16__deque_iteratorI8CustomerPS1_RS1_PS2_lLl73EEES7_, symObjAddr: 0x4308, symBinAddr: 0x100006400, symSize: 0x30 }
  - { offsetInCU: 0xB795, offset: 0xB795, size: 0x8, addend: 0x0, symName: __ZNSt3__112__to_addressB8ue170006I8CustomerEEPT_S3_, symObjAddr: 0x4A18, symBinAddr: 0x100006B10, symSize: 0x14 }
  - { offsetInCU: 0xB7CA, offset: 0xB7CA, size: 0x8, addend: 0x0, symName: __ZNSt3__112__to_addressB8ue170006IP8CustomerEEPT_S4_, symObjAddr: 0x4DE8, symBinAddr: 0x100006EE0, symSize: 0x14 }
  - { offsetInCU: 0xB7FF, offset: 0xB7FF, size: 0x8, addend: 0x0, symName: __ZNSt3__116__pad_and_outputB8ue170006IcNS_11char_traitsIcEEEENS_19ostreambuf_iteratorIT_T0_EES6_PKS4_S8_S8_RNS_8ios_baseES4_, symObjAddr: 0x52DC, symBinAddr: 0x1000073D4, symSize: 0x240 }
  - { offsetInCU: 0xB8CE, offset: 0xB8CE, size: 0x8, addend: 0x0, symName: __ZNSt3__112__to_addressB8ue170006IKcEEPT_S3_, symObjAddr: 0x574C, symBinAddr: 0x100007844, symSize: 0x14 }
  - { offsetInCU: 0xB936, offset: 0xB936, size: 0x8, addend: 0x0, symName: __ZNSt3__19use_facetB8ue170006INS_5ctypeIcEEEERKT_RKNS_6localeE, symObjAddr: 0x59CC, symBinAddr: 0x100007AC4, symSize: 0x2C }
  - { offsetInCU: 0xBD14, offset: 0xBD14, size: 0x8, addend: 0x0, symName: __ZNSt3__118__constexpr_strlenB8ue170006EPKc, symObjAddr: 0x5A64, symBinAddr: 0x100007B5C, symSize: 0x24 }
  - { offsetInCU: 0xBD40, offset: 0xBD40, size: 0x8, addend: 0x0, symName: __ZNSt3__17getlineB8ue170006IcNS_11char_traitsIcEENS_9allocatorIcEEEERNS_13basic_istreamIT_T0_EES9_RNS_12basic_stringIS6_S7_T1_EES6_, symObjAddr: 0x5A88, symBinAddr: 0x100007B80, symSize: 0x238 }
  - { offsetInCU: 0xC5BE, offset: 0xC5BE, size: 0x8, addend: 0x0, symName: __ZNSt3__13maxB8ue170006ImEERKT_S3_S3_, symObjAddr: 0x7014, symBinAddr: 0x10000910C, symSize: 0x2C }
  - { offsetInCU: 0xCA5A, offset: 0xCA5A, size: 0x8, addend: 0x0, symName: __ZNSt3__14swapB8ue170006IPP4RentEENS_9enable_ifIXaasr21is_move_constructibleIT_EE5valuesr18is_move_assignableIS5_EE5valueEvE4typeERS5_S8_, symObjAddr: 0x7624, symBinAddr: 0x10000971C, symSize: 0x3C }
  - { offsetInCU: 0xCAAB, offset: 0xCAAB, size: 0x8, addend: 0x0, symName: __ZNSt3__14moveB8ue170006IPP4RentS3_EET0_T_S5_S4_, symObjAddr: 0x7708, symBinAddr: 0x100009800, symSize: 0x40 }
  - { offsetInCU: 0xCB21, offset: 0xCB21, size: 0x8, addend: 0x0, symName: __ZNSt3__16__moveB8ue170006INS_17_ClassicAlgPolicyEPP4RentS4_S4_EENS_4pairIT0_T2_EES6_T1_S7_, symObjAddr: 0x7810, symBinAddr: 0x100009908, symSize: 0x44 }
  - { offsetInCU: 0xCB8D, offset: 0xCB8D, size: 0x8, addend: 0x0, symName: __ZNSt3__123__dispatch_copy_or_moveB8ue170006INS_17_ClassicAlgPolicyENS_11__move_loopIS1_EENS_14__move_trivialEPP4RentS7_S7_EENS_4pairIT2_T4_EES9_T3_SA_, symObjAddr: 0x7854, symBinAddr: 0x10000994C, symSize: 0x44 }
  - { offsetInCU: 0xCC0B, offset: 0xCC0B, size: 0x8, addend: 0x0, symName: __ZNSt3__121__unwrap_and_dispatchB8ue170006INS_10__overloadINS_11__move_loopINS_17_ClassicAlgPolicyEEENS_14__move_trivialEEEPP4RentS9_S9_Li0EEENS_4pairIT0_T2_EESB_T1_SC_, symObjAddr: 0x7898, symBinAddr: 0x100009990, symSize: 0xB4 }
  - { offsetInCU: 0xCC99, offset: 0xCC99, size: 0x8, addend: 0x0, symName: __ZNSt3__114__unwrap_rangeB8ue170006IPP4RentS3_EENS_4pairIT0_S5_EET_S7_, symObjAddr: 0x794C, symBinAddr: 0x100009A44, symSize: 0x60 }
  - { offsetInCU: 0xCE5D, offset: 0xCE5D, size: 0x8, addend: 0x0, symName: __ZNSt3__113__unwrap_iterB8ue170006IPP4RentNS_18__unwrap_iter_implIS3_Lb1EEELi0EEEDTclsrT0_8__unwrapclsr3stdE7declvalIT_EEEES7_, symObjAddr: 0x79F4, symBinAddr: 0x100009AEC, symSize: 0x24 }
  - { offsetInCU: 0xCEA1, offset: 0xCEA1, size: 0x8, addend: 0x0, symName: __ZNSt3__19make_pairB8ue170006IPP4RentS3_EENS_4pairINS_18__unwrap_ref_decayIT_E4typeENS5_IT0_E4typeEEEOS6_OS9_, symObjAddr: 0x7A18, symBinAddr: 0x100009B10, symSize: 0x38 }
  - { offsetInCU: 0xCEF0, offset: 0xCEF0, size: 0x8, addend: 0x0, symName: __ZNSt3__114__rewrap_rangeB8ue170006IPP4RentS3_EET_S4_T0_, symObjAddr: 0x7A50, symBinAddr: 0x100009B48, symSize: 0x2C }
  - { offsetInCU: 0xCF3C, offset: 0xCF3C, size: 0x8, addend: 0x0, symName: __ZNSt3__113__rewrap_iterB8ue170006IPP4RentS3_NS_18__unwrap_iter_implIS3_Lb1EEEEET_S6_T0_, symObjAddr: 0x7A7C, symBinAddr: 0x100009B74, symSize: 0x3C }
  - { offsetInCU: 0xCF91, offset: 0xCF91, size: 0x8, addend: 0x0, symName: __ZNSt3__119__copy_trivial_implB8ue170006IP4RentS2_EENS_4pairIPT_PT0_EES5_S5_S7_, symObjAddr: 0x7AB8, symBinAddr: 0x100009BB0, symSize: 0x80 }
  - { offsetInCU: 0xCFF9, offset: 0xCFF9, size: 0x8, addend: 0x0, symName: __ZNSt3__119__constexpr_memmoveB8ue170006IP4RentS2_Li0EEEPT_S4_PT0_NS_15__element_countE, symObjAddr: 0x7B38, symBinAddr: 0x100009C30, symSize: 0x64 }
  - { offsetInCU: 0xD067, offset: 0xD067, size: 0x8, addend: 0x0, symName: __ZNSt3__19make_pairB8ue170006IRPP4RentS3_EENS_4pairINS_18__unwrap_ref_decayIT_E4typeENS6_IT0_E4typeEEEOS7_OSA_, symObjAddr: 0x7B9C, symBinAddr: 0x100009C94, symSize: 0x38 }
  - { offsetInCU: 0xD109, offset: 0xD109, size: 0x8, addend: 0x0, symName: __ZNSt3__18distanceB8ue170006INS_13move_iteratorIPP4RentEEEENS_15iterator_traitsIT_E15difference_typeES7_S7_, symObjAddr: 0x7E04, symBinAddr: 0x100009EFC, symSize: 0x3C }
  - { offsetInCU: 0xD14C, offset: 0xD14C, size: 0x8, addend: 0x0, symName: __ZNSt3__110__distanceB8ue170006INS_13move_iteratorIPP4RentEEEENS_15iterator_traitsIT_E15difference_typeES7_S7_NS_26random_access_iterator_tagE, symObjAddr: 0x8008, symBinAddr: 0x10000A100, symSize: 0x30 }
  - { offsetInCU: 0xD199, offset: 0xD199, size: 0x8, addend: 0x0, symName: __ZNSt3__1miB8ue170006IPP4RentS3_EEDTmicldtfp_4baseEcldtfp0_4baseEERKNS_13move_iteratorIT_EERKNS5_IT0_EE, symObjAddr: 0x8038, symBinAddr: 0x10000A130, symSize: 0x48 }
  - { offsetInCU: 0xD1E8, offset: 0xD1E8, size: 0x8, addend: 0x0, symName: __ZNSt3__117__libcpp_allocateB8ue170006Emm, symObjAddr: 0x8194, symBinAddr: 0x10000A28C, symSize: 0x28 }
  - { offsetInCU: 0xD225, offset: 0xD225, size: 0x8, addend: 0x0, symName: __ZNSt3__121__libcpp_operator_newB8ue170006IJmEEEPvDpT_, symObjAddr: 0x81D4, symBinAddr: 0x10000A2CC, symSize: 0x24 }
  - { offsetInCU: 0xD25E, offset: 0xD25E, size: 0x8, addend: 0x0, symName: __ZNSt3__113move_backwardB8ue170006IPP4RentS3_EET0_T_S5_S4_, symObjAddr: 0x81F8, symBinAddr: 0x10000A2F0, symSize: 0x40 }
  - { offsetInCU: 0xD2B8, offset: 0xD2B8, size: 0x8, addend: 0x0, symName: __ZNSt3__115__move_backwardB8ue170006INS_17_ClassicAlgPolicyEPP4RentS4_S4_EENS_4pairIT0_T2_EES6_T1_S7_, symObjAddr: 0x8238, symBinAddr: 0x10000A330, symSize: 0x44 }
  - { offsetInCU: 0xD324, offset: 0xD324, size: 0x8, addend: 0x0, symName: __ZNSt3__123__dispatch_copy_or_moveB8ue170006INS_17_ClassicAlgPolicyENS_20__move_backward_loopIS1_EENS_23__move_backward_trivialEPP4RentS7_S7_EENS_4pairIT2_T4_EES9_T3_SA_, symObjAddr: 0x827C, symBinAddr: 0x10000A374, symSize: 0x44 }
  - { offsetInCU: 0xD3A2, offset: 0xD3A2, size: 0x8, addend: 0x0, symName: __ZNSt3__121__unwrap_and_dispatchB8ue170006INS_10__overloadINS_20__move_backward_loopINS_17_ClassicAlgPolicyEEENS_23__move_backward_trivialEEEPP4RentS9_S9_Li0EEENS_4pairIT0_T2_EESB_T1_SC_, symObjAddr: 0x82C0, symBinAddr: 0x10000A3B8, symSize: 0xB4 }
  - { offsetInCU: 0xD476, offset: 0xD476, size: 0x8, addend: 0x0, symName: __ZNSt3__128__copy_backward_trivial_implB8ue170006IP4RentS2_EENS_4pairIPT_PT0_EES5_S5_S7_, symObjAddr: 0x83BC, symBinAddr: 0x10000A4B4, symSize: 0x90 }
  - { offsetInCU: 0xD4DE, offset: 0xD4DE, size: 0x8, addend: 0x0, symName: __ZNSt3__19make_pairB8ue170006IRPP4RentS4_EENS_4pairINS_18__unwrap_ref_decayIT_E4typeENS6_IT0_E4typeEEEOS7_OSA_, symObjAddr: 0x844C, symBinAddr: 0x10000A544, symSize: 0x38 }
  - { offsetInCU: 0xD52D, offset: 0xD52D, size: 0x8, addend: 0x0, symName: __ZNSt3__13maxB8ue170006ImNS_6__lessIvvEEEERKT_S5_S5_T0_, symObjAddr: 0x84F4, symBinAddr: 0x10000A5EC, symSize: 0x54 }
  - { offsetInCU: 0xD5CC, offset: 0xD5CC, size: 0x8, addend: 0x0, symName: __ZNSt3__119__allocate_at_leastB8ue170006INS_9allocatorIP4RentEEEENS_19__allocation_resultINS_16allocator_traitsIT_E7pointerEEERS7_m, symObjAddr: 0x868C, symBinAddr: 0x10000A784, symSize: 0x40 }
  - { offsetInCU: 0xD60F, offset: 0xD60F, size: 0x8, addend: 0x0, symName: __ZNSt3__18distanceB8ue170006INS_16__deque_iteratorI4RentPKS2_RS3_PKS4_lLl341EEEEENS_15iterator_traitsIT_E15difference_typeESA_SA_, symObjAddr: 0x9B90, symBinAddr: 0x10000BC88, symSize: 0x4C }
  - { offsetInCU: 0xD652, offset: 0xD652, size: 0x8, addend: 0x0, symName: __ZNSt3__1neB8ue170006ERKNS_5dequeI4RentNS_9allocatorIS1_EEE13__deque_rangeES7_, symObjAddr: 0xA31C, symBinAddr: 0x10000C414, symSize: 0x34 }
  - { offsetInCU: 0xD68F, offset: 0xD68F, size: 0x8, addend: 0x0, symName: __ZNSt3__13minB8ue170006ImEERKT_S3_S3_, symObjAddr: 0xA560, symBinAddr: 0x10000C658, symSize: 0x2C }
  - { offsetInCU: 0xD6D2, offset: 0xD6D2, size: 0x8, addend: 0x0, symName: __ZNSt3__13minB8ue170006ImNS_6__lessIvvEEEERKT_S5_S5_T0_, symObjAddr: 0xA838, symBinAddr: 0x10000C930, symSize: 0x54 }
  - { offsetInCU: 0xD72C, offset: 0xD72C, size: 0x8, addend: 0x0, symName: __ZNSt3__1eqB8ue170006ERKNS_5dequeI4RentNS_9allocatorIS1_EEE13__deque_rangeES7_, symObjAddr: 0xA9E0, symBinAddr: 0x10000CAD8, symSize: 0x30 }
  - { offsetInCU: 0xD769, offset: 0xD769, size: 0x8, addend: 0x0, symName: __ZNSt3__110__distanceB8ue170006INS_16__deque_iteratorI4RentPKS2_RS3_PKS4_lLl341EEEEENS_15iterator_traitsIT_E15difference_typeESA_SA_NS_26random_access_iterator_tagE, symObjAddr: 0xAB1C, symBinAddr: 0x10000CC14, symSize: 0x38 }
  - { offsetInCU: 0xD7B6, offset: 0xD7B6, size: 0x8, addend: 0x0, symName: __ZNSt3__1miB8ue170006ERKNS_16__deque_iteratorI4RentPKS1_RS2_PKS3_lLl341EEES9_, symObjAddr: 0xAB54, symBinAddr: 0x10000CC4C, symSize: 0xB0 }
  - { offsetInCU: 0xD7F3, offset: 0xD7F3, size: 0x8, addend: 0x0, symName: __ZNSt3__1neB8ue170006ERKNS_16__deque_iteratorI4RentPKS1_RS2_PKS3_lLl341EEES9_, symObjAddr: 0xAC04, symBinAddr: 0x10000CCFC, symSize: 0x34 }
  - { offsetInCU: 0xD830, offset: 0xD830, size: 0x8, addend: 0x0, symName: __ZNSt3__1eqB8ue170006ERKNS_16__deque_iteratorI4RentPKS1_RS2_PKS3_lLl341EEES9_, symObjAddr: 0xAC38, symBinAddr: 0x10000CD30, symSize: 0x30 }
  - { offsetInCU: 0xD86D, offset: 0xD86D, size: 0x8, addend: 0x0, symName: __ZNSt3__112__to_addressB8ue170006IiEEPT_S2_, symObjAddr: 0xB17C, symBinAddr: 0x10000D274, symSize: 0x14 }
  - { offsetInCU: 0xD8A2, offset: 0xD8A2, size: 0x8, addend: 0x0, symName: __ZNSt3__120__throw_length_errorB8ue170006EPKc, symObjAddr: 0xB924, symBinAddr: 0x10000DA1C, symSize: 0x64 }
  - { offsetInCU: 0xD8CC, offset: 0xD8CC, size: 0x8, addend: 0x0, symName: __ZNSt3__119__allocate_at_leastB8ue170006INS_9allocatorIiEEEENS_19__allocation_resultINS_16allocator_traitsIT_E7pointerEEERS5_m, symObjAddr: 0xBB18, symBinAddr: 0x10000DC10, symSize: 0x40 }
  - { offsetInCU: 0xD90F, offset: 0xD90F, size: 0x8, addend: 0x0, symName: __ZNSt3__142__uninitialized_allocator_move_if_noexceptB8ue170006INS_9allocatorIiEENS_16reverse_iteratorIPiEES5_ivEET1_RT_T0_S9_S6_, symObjAddr: 0xBCCC, symBinAddr: 0x10000DDC4, symSize: 0x78 }
  - { offsetInCU: 0xD98C, offset: 0xD98C, size: 0x8, addend: 0x0, symName: __ZNSt3__14swapB8ue170006IPiEENS_9enable_ifIXaasr21is_move_constructibleIT_EE5valuesr18is_move_assignableIS3_EE5valueEvE4typeERS3_S6_, symObjAddr: 0xBD90, symBinAddr: 0x10000DE88, symSize: 0x3C }
  - { offsetInCU: 0xD9DD, offset: 0xD9DD, size: 0x8, addend: 0x0, symName: __ZNSt3__14moveB8ue170006INS_16reverse_iteratorIPiEES3_EET0_T_S5_S4_, symObjAddr: 0xBE78, symBinAddr: 0x10000DF70, symSize: 0x78 }
  - { offsetInCU: 0xDA37, offset: 0xDA37, size: 0x8, addend: 0x0, symName: __ZNSt3__16__moveB8ue170006INS_17_ClassicAlgPolicyENS_16reverse_iteratorIPiEES4_S4_EENS_4pairIT0_T2_EES6_T1_S7_, symObjAddr: 0xBEF0, symBinAddr: 0x10000DFE8, symSize: 0x64 }
  - { offsetInCU: 0xDAA3, offset: 0xDAA3, size: 0x8, addend: 0x0, symName: __ZNSt3__123__dispatch_copy_or_moveB8ue170006INS_17_ClassicAlgPolicyENS_11__move_loopIS1_EENS_14__move_trivialENS_16reverse_iteratorIPiEES7_S7_EENS_4pairIT2_T4_EES9_T3_SA_, symObjAddr: 0xBF54, symBinAddr: 0x10000E04C, symSize: 0x64 }
  - { offsetInCU: 0xDB21, offset: 0xDB21, size: 0x8, addend: 0x0, symName: __ZNSt3__121__unwrap_and_dispatchB8ue170006INS_10__overloadINS_11__move_loopINS_17_ClassicAlgPolicyEEENS_14__move_trivialEEENS_16reverse_iteratorIPiEES9_S9_Li0EEENS_4pairIT0_T2_EESB_T1_SC_, symObjAddr: 0xBFB8, symBinAddr: 0x10000E0B0, symSize: 0x12C }
  - { offsetInCU: 0xDBB1, offset: 0xDBB1, size: 0x8, addend: 0x0, symName: __ZNSt3__114__unwrap_rangeB8ue170006INS_16reverse_iteratorIPiEES3_EENS_4pairIT0_S5_EET_S7_, symObjAddr: 0xC0E4, symBinAddr: 0x10000E1DC, symSize: 0x84 }
  - { offsetInCU: 0xDD2C, offset: 0xDD2C, size: 0x8, addend: 0x0, symName: __ZNSt3__113__unwrap_iterB8ue170006INS_16reverse_iteratorIPiEENS_18__unwrap_iter_implIS3_Lb0EEELi0EEEDTclsrT0_8__unwrapclsr3stdE7declvalIT_EEEES7_, symObjAddr: 0xC208, symBinAddr: 0x10000E300, symSize: 0x44 }
  - { offsetInCU: 0xDD70, offset: 0xDD70, size: 0x8, addend: 0x0, symName: __ZNSt3__19make_pairB8ue170006INS_16reverse_iteratorIPiEES3_EENS_4pairINS_18__unwrap_ref_decayIT_E4typeENS5_IT0_E4typeEEEOS6_OS9_, symObjAddr: 0xC24C, symBinAddr: 0x10000E344, symSize: 0x38 }
  - { offsetInCU: 0xDDBF, offset: 0xDDBF, size: 0x8, addend: 0x0, symName: __ZNSt3__114__rewrap_rangeB8ue170006INS_16reverse_iteratorIPiEES3_EET_S4_T0_, symObjAddr: 0xC284, symBinAddr: 0x10000E37C, symSize: 0x5C }
  - { offsetInCU: 0xDE0B, offset: 0xDE0B, size: 0x8, addend: 0x0, symName: __ZNSt3__113__rewrap_iterB8ue170006INS_16reverse_iteratorIPiEES3_NS_18__unwrap_iter_implIS3_Lb0EEEEET_S6_T0_, symObjAddr: 0xC2E0, symBinAddr: 0x10000E3D8, symSize: 0x74 }
  - { offsetInCU: 0xDE60, offset: 0xDE60, size: 0x8, addend: 0x0, symName: __ZNSt3__1neB8ue170006IPiS1_EEbRKNS_16reverse_iteratorIT_EERKNS2_IT0_EE, symObjAddr: 0xC354, symBinAddr: 0x10000E44C, symSize: 0x48 }
  - { offsetInCU: 0xE3AF, offset: 0xE3AF, size: 0x8, addend: 0x0, symName: __ZSt28__throw_bad_array_new_lengthB8ue170006v, symObjAddr: 0x8160, symBinAddr: 0x10000A258, symSize: 0x34 }
  - { offsetInCU: 0xE577, offset: 0xE577, size: 0x8, addend: 0x0, symName: __ZN8Customer6nextIdE, symObjAddr: 0xD3B0, symBinAddr: 0x100014004, symSize: 0x0 }
  - { offsetInCU: 0xE650, offset: 0xE650, size: 0x8, addend: 0x0, symName: __ZN4Rent6nextIdE, symObjAddr: 0xD3B4, symBinAddr: 0x100014008, symSize: 0x0 }
  - { offsetInCU: 0xF035, offset: 0xF035, size: 0x8, addend: 0x0, symName: __ZNSt3__16vectorIiNS_9allocatorIiEEE26__swap_out_circular_bufferERNS_14__split_bufferIiRS2_EE, symObjAddr: 0xB6D4, symBinAddr: 0x10000D7CC, symSize: 0x110 }
  - { offsetInCU: 0x113DA, offset: 0x113DA, size: 0x8, addend: 0x0, symName: __ZN5Video11createVideoEv, symObjAddr: 0x0, symBinAddr: 0x1000020F8, symSize: 0x264 }
  - { offsetInCU: 0x1143A, offset: 0x1143A, size: 0x8, addend: 0x0, symName: __ZNSt3__112basic_stringIcNS_11char_traitsIcEENS_9allocatorIcEEEC1B8ue170006Ev, symObjAddr: 0x264, symBinAddr: 0x10000235C, symSize: 0x2C }
  - { offsetInCU: 0x11464, offset: 0x11464, size: 0x8, addend: 0x0, symName: __ZN5VideoC1ENSt3__112basic_stringIcNS0_11char_traitsIcEENS0_9allocatorIcEEEES6_S6_iS6_, symObjAddr: 0x334, symBinAddr: 0x10000242C, symSize: 0x54 }
  - { offsetInCU: 0x114D8, offset: 0x114D8, size: 0x8, addend: 0x0, symName: __ZN5Video12displayVideoEPS_, symObjAddr: 0x388, symBinAddr: 0x100002480, symSize: 0x250 }
  - { offsetInCU: 0x114FC, offset: 0x114FC, size: 0x8, addend: 0x0, symName: __ZN5Video5getIdEv, symObjAddr: 0x5D8, symBinAddr: 0x1000026D0, symSize: 0x18 }
  - { offsetInCU: 0x11522, offset: 0x11522, size: 0x8, addend: 0x0, symName: __ZNSt3__113basic_ostreamIcNS_11char_traitsIcEEElsB8ue170006EPFRS3_S4_E, symObjAddr: 0x5F0, symBinAddr: 0x1000026E8, symSize: 0x2C }
  - { offsetInCU: 0x11556, offset: 0x11556, size: 0x8, addend: 0x0, symName: __ZN5Video8getTitleEv, symObjAddr: 0x6C0, symBinAddr: 0x1000027B8, symSize: 0x3C }
  - { offsetInCU: 0x1157C, offset: 0x1157C, size: 0x8, addend: 0x0, symName: __ZN5Video8getGenreEv, symObjAddr: 0x6FC, symBinAddr: 0x1000027F4, symSize: 0x3C }
  - { offsetInCU: 0x115A2, offset: 0x115A2, size: 0x8, addend: 0x0, symName: __ZN5Video13getProductionEv, symObjAddr: 0x738, symBinAddr: 0x100002830, symSize: 0x3C }
  - { offsetInCU: 0x115C8, offset: 0x115C8, size: 0x8, addend: 0x0, symName: __ZN5Video17getNumberOfCopiesEv, symObjAddr: 0x774, symBinAddr: 0x10000286C, symSize: 0x18 }
  - { offsetInCU: 0x115EE, offset: 0x115EE, size: 0x8, addend: 0x0, symName: __ZN5Video21getMovieImageFilenameEv, symObjAddr: 0x78C, symBinAddr: 0x100002884, symSize: 0x3C }
  - { offsetInCU: 0x11614, offset: 0x11614, size: 0x8, addend: 0x0, symName: __ZN8Customer14createCustomerEv, symObjAddr: 0x7C8, symBinAddr: 0x1000028C0, symSize: 0x13C }
  - { offsetInCU: 0x11646, offset: 0x11646, size: 0x8, addend: 0x0, symName: __ZN8CustomerC1ENSt3__112basic_stringIcNS0_11char_traitsIcEENS0_9allocatorIcEEEES6_, symObjAddr: 0xC0C, symBinAddr: 0x100002D04, symSize: 0x3C }
  - { offsetInCU: 0x1168E, offset: 0x1168E, size: 0x8, addend: 0x0, symName: __ZN8Customer15displayCustomerES_, symObjAddr: 0xC48, symBinAddr: 0x100002D40, symSize: 0x14C }
  - { offsetInCU: 0x116B3, offset: 0x116B3, size: 0x8, addend: 0x0, symName: __ZN8Customer5getIdEv, symObjAddr: 0xD94, symBinAddr: 0x100002E8C, symSize: 0x18 }
  - { offsetInCU: 0x116D9, offset: 0x116D9, size: 0x8, addend: 0x0, symName: __ZN8Customer7getNameEv, symObjAddr: 0xDAC, symBinAddr: 0x100002EA4, symSize: 0x3C }
  - { offsetInCU: 0x116FF, offset: 0x116FF, size: 0x8, addend: 0x0, symName: __ZN8Customer10getAddressEv, symObjAddr: 0xDE8, symBinAddr: 0x100002EE0, symSize: 0x3C }
  - { offsetInCU: 0x11725, offset: 0x11725, size: 0x8, addend: 0x0, symName: __ZN4Rent10createRentEv, symObjAddr: 0xE24, symBinAddr: 0x100002F1C, symSize: 0xCC }
  - { offsetInCU: 0x11757, offset: 0x11757, size: 0x8, addend: 0x0, symName: __ZN4RentC1Eii, symObjAddr: 0xEF0, symBinAddr: 0x100002FE8, symSize: 0x3C }
  - { offsetInCU: 0x1179D, offset: 0x1179D, size: 0x8, addend: 0x0, symName: __ZN4Rent7addRentEPNSt3__15stackIS_NS0_5dequeIS_NS0_9allocatorIS_EEEEEE, symObjAddr: 0xF2C, symBinAddr: 0x100003024, symSize: 0x78 }
  - { offsetInCU: 0x117CF, offset: 0x117CF, size: 0x8, addend: 0x0, symName: __ZNSt3__15stackI4RentNS_5dequeIS1_NS_9allocatorIS1_EEEEE4pushB8ue170006ERKS1_, symObjAddr: 0xFA4, symBinAddr: 0x10000309C, symSize: 0x2C }
  - { offsetInCU: 0x11804, offset: 0x11804, size: 0x8, addend: 0x0, symName: __ZN4Rent11displayRentES_, symObjAddr: 0xFD0, symBinAddr: 0x1000030C8, symSize: 0x11C }
  - { offsetInCU: 0x11828, offset: 0x11828, size: 0x8, addend: 0x0, symName: __ZN4Rent5getIdEv, symObjAddr: 0x10EC, symBinAddr: 0x1000031E4, symSize: 0x18 }
  - { offsetInCU: 0x1184E, offset: 0x1184E, size: 0x8, addend: 0x0, symName: __ZN4Rent10getVideoIdEv, symObjAddr: 0x1104, symBinAddr: 0x1000031FC, symSize: 0x18 }
  - { offsetInCU: 0x11874, offset: 0x11874, size: 0x8, addend: 0x0, symName: __ZN4Rent13getCustomerIdEv, symObjAddr: 0x111C, symBinAddr: 0x100003214, symSize: 0x18 }
  - { offsetInCU: 0x1189A, offset: 0x1189A, size: 0x8, addend: 0x0, symName: __ZN4Rent11returnVideoEiPNSt3__15stackIS_NS0_5dequeIS_NS0_9allocatorIS_EEEEEE, symObjAddr: 0x1134, symBinAddr: 0x10000322C, symSize: 0xEC }
  - { offsetInCU: 0x118EE, offset: 0x118EE, size: 0x8, addend: 0x0, symName: __ZNSt3__15stackI4RentNS_5dequeIS1_NS_9allocatorIS1_EEEEEC1B8ue170006Ev, symObjAddr: 0x1220, symBinAddr: 0x100003318, symSize: 0x2C }
  - { offsetInCU: 0x11918, offset: 0x11918, size: 0x8, addend: 0x0, symName: __ZNKSt3__15stackI4RentNS_5dequeIS1_NS_9allocatorIS1_EEEEE5emptyB8ue170006Ev, symObjAddr: 0x124C, symBinAddr: 0x100003344, symSize: 0x28 }
  - { offsetInCU: 0x1193E, offset: 0x1193E, size: 0x8, addend: 0x0, symName: __ZNSt3__15stackI4RentNS_5dequeIS1_NS_9allocatorIS1_EEEEE3topB8ue170006Ev, symObjAddr: 0x1274, symBinAddr: 0x10000336C, symSize: 0x24 }
  - { offsetInCU: 0x11964, offset: 0x11964, size: 0x8, addend: 0x0, symName: __ZNSt3__15stackI4RentNS_5dequeIS1_NS_9allocatorIS1_EEEEE3popB8ue170006Ev, symObjAddr: 0x1298, symBinAddr: 0x100003390, symSize: 0x24 }
  - { offsetInCU: 0x1198A, offset: 0x1198A, size: 0x8, addend: 0x0, symName: __ZNSt3__15stackI4RentNS_5dequeIS1_NS_9allocatorIS1_EEEEED1Ev, symObjAddr: 0x12BC, symBinAddr: 0x1000033B4, symSize: 0x2C }
  - { offsetInCU: 0x119B6, offset: 0x119B6, size: 0x8, addend: 0x0, symName: __ZN4Rent20getVideoAvailabilityEiNSt3__15stackIS_NS0_5dequeIS_NS0_9allocatorIS_EEEEEE, symObjAddr: 0x12E8, symBinAddr: 0x1000033E0, symSize: 0xF0 }
  - { offsetInCU: 0x11A19, offset: 0x11A19, size: 0x8, addend: 0x0, symName: __ZNSt3__15stackI4RentNS_5dequeIS1_NS_9allocatorIS1_EEEEEC1B8ue170006ERKS6_, symObjAddr: 0x13D8, symBinAddr: 0x1000034D0, symSize: 0x34 }
  - { offsetInCU: 0x11A51, offset: 0x11A51, size: 0x8, addend: 0x0, symName: __ZN4Rent28listOfVideosRentedByCustomerEiNSt3__15stackIS_NS0_5dequeIS_NS0_9allocatorIS_EEEEEE, symObjAddr: 0x140C, symBinAddr: 0x100003504, symSize: 0x170 }
  - { offsetInCU: 0x11AB6, offset: 0x11AB6, size: 0x8, addend: 0x0, symName: __ZNSt3__16vectorIiNS_9allocatorIiEEEC1B8ue170006Ev, symObjAddr: 0x157C, symBinAddr: 0x100003674, symSize: 0x2C }
  - { offsetInCU: 0x11AE0, offset: 0x11AE0, size: 0x8, addend: 0x0, symName: __ZNSt3__16vectorIiNS_9allocatorIiEEE9push_backB8ue170006EOi, symObjAddr: 0x15A8, symBinAddr: 0x1000036A0, symSize: 0x6C }
  - { offsetInCU: 0x11B17, offset: 0x11B17, size: 0x8, addend: 0x0, symName: __ZNSt3__16vectorIiNS_9allocatorIiEEED1B8ue170006Ev, symObjAddr: 0x1614, symBinAddr: 0x10000370C, symSize: 0x2C }
  - { offsetInCU: 0x11B40, offset: 0x11B40, size: 0x8, addend: 0x0, symName: __Z12customerMenuv, symObjAddr: 0x1640, symBinAddr: 0x100003738, symSize: 0xF8 }
  - { offsetInCU: 0x11B6D, offset: 0x11B6D, size: 0x8, addend: 0x0, symName: __Z11displayMenuv, symObjAddr: 0x1738, symBinAddr: 0x100003830, symSize: 0x100 }
  - { offsetInCU: 0x11B86, offset: 0x11B86, size: 0x8, addend: 0x0, symName: __Z14getValidChoicev, symObjAddr: 0x1838, symBinAddr: 0x100003930, symSize: 0x124 }
  - { offsetInCU: 0x11BC1, offset: 0x11BC1, size: 0x8, addend: 0x0, symName: __ZNKSt3__19basic_iosIcNS_11char_traitsIcEEEcvbB8ue170006Ev, symObjAddr: 0x195C, symBinAddr: 0x100003A54, symSize: 0x2C }
  - { offsetInCU: 0x11BE7, offset: 0x11BE7, size: 0x8, addend: 0x0, symName: __ZNSt3__19basic_iosIcNS_11char_traitsIcEEE5clearB8ue170006Ej, symObjAddr: 0x1988, symBinAddr: 0x100003A80, symSize: 0x2C }
  - { offsetInCU: 0x11C1C, offset: 0x11C1C, size: 0x8, addend: 0x0, symName: __ZNSt3__114numeric_limitsIlE3maxB8ue170006Ev, symObjAddr: 0x19B4, symBinAddr: 0x100003AAC, symSize: 0x14 }
  - { offsetInCU: 0x11C30, offset: 0x11C30, size: 0x8, addend: 0x0, symName: _main, symObjAddr: 0x19C8, symBinAddr: 0x100003AC0, symSize: 0x27C }
  - { offsetInCU: 0x11D3D, offset: 0x11D3D, size: 0x8, addend: 0x0, symName: __ZN9VideoListC1Ev, symObjAddr: 0x1C64, symBinAddr: 0x100003D5C, symSize: 0x2C }
  - { offsetInCU: 0x11DA3, offset: 0x11DA3, size: 0x8, addend: 0x0, symName: __ZNSt3__15queueI8CustomerNS_5dequeIS1_NS_9allocatorIS1_EEEEEC1B8ue170006Ev, symObjAddr: 0x1C90, symBinAddr: 0x100003D88, symSize: 0x2C }
  - { offsetInCU: 0x11DCD, offset: 0x11DCD, size: 0x8, addend: 0x0, symName: __ZN9VideoList8addVideoEv, symObjAddr: 0x1CBC, symBinAddr: 0x100003DB4, symSize: 0xA8 }
  - { offsetInCU: 0x11E02, offset: 0x11E02, size: 0x8, addend: 0x0, symName: __ZNSt3__15queueI8CustomerNS_5dequeIS1_NS_9allocatorIS1_EEEEED1Ev, symObjAddr: 0x1D64, symBinAddr: 0x100003E5C, symSize: 0x2C }
  - { offsetInCU: 0x11E2F, offset: 0x11E2F, size: 0x8, addend: 0x0, symName: __ZN5VideoC2ENSt3__112basic_stringIcNS0_11char_traitsIcEENS0_9allocatorIcEEEES6_S6_iS6_, symObjAddr: 0x1D90, symBinAddr: 0x100003E88, symSize: 0x130 }
  - { offsetInCU: 0x11EA3, offset: 0x11EA3, size: 0x8, addend: 0x0, symName: __ZN8CustomerC2ENSt3__112basic_stringIcNS0_11char_traitsIcEENS0_9allocatorIcEEEES6_, symObjAddr: 0x1EC0, symBinAddr: 0x100003FB8, symSize: 0xBC }
  - { offsetInCU: 0x11EEB, offset: 0x11EEB, size: 0x8, addend: 0x0, symName: __ZN4RentC2Eii, symObjAddr: 0x1F7C, symBinAddr: 0x100004074, symSize: 0x40 }
  - { offsetInCU: 0x11F31, offset: 0x11F31, size: 0x8, addend: 0x0, symName: __ZNSt3__15stackI4RentNS_5dequeIS1_NS_9allocatorIS1_EEEEED2Ev, symObjAddr: 0x1FBC, symBinAddr: 0x1000040B4, symSize: 0x2C }
  - { offsetInCU: 0x11F5D, offset: 0x11F5D, size: 0x8, addend: 0x0, symName: __ZNSt3__15dequeI4RentNS_9allocatorIS1_EEED1B8ue170006Ev, symObjAddr: 0x1FE8, symBinAddr: 0x1000040E0, symSize: 0x2C }
  - { offsetInCU: 0x11F87, offset: 0x11F87, size: 0x8, addend: 0x0, symName: __ZNSt3__15dequeI4RentNS_9allocatorIS1_EEED2B8ue170006Ev, symObjAddr: 0x2014, symBinAddr: 0x10000410C, symSize: 0xA4 }
  - { offsetInCU: 0x11FDE, offset: 0x11FDE, size: 0x8, addend: 0x0, symName: __ZNSt3__15dequeI4RentNS_9allocatorIS1_EEE5clearEv, symObjAddr: 0x20B8, symBinAddr: 0x1000041B0, symSize: 0x194 }
  - { offsetInCU: 0x12039, offset: 0x12039, size: 0x8, addend: 0x0, symName: __ZNKSt3__15dequeI4RentNS_9allocatorIS1_EEE17__annotate_deleteB8ue170006Ev, symObjAddr: 0x224C, symBinAddr: 0x100004344, symSize: 0xEC }
  - { offsetInCU: 0x1207D, offset: 0x1207D, size: 0x8, addend: 0x0, symName: __ZNSt3__114__split_bufferIP4RentNS_9allocatorIS2_EEE5beginB8ue170006Ev, symObjAddr: 0x2338, symBinAddr: 0x100004430, symSize: 0x18 }
  - { offsetInCU: 0x120A3, offset: 0x120A3, size: 0x8, addend: 0x0, symName: __ZNSt3__114__split_bufferIP4RentNS_9allocatorIS2_EEE3endB8ue170006Ev, symObjAddr: 0x2350, symBinAddr: 0x100004448, symSize: 0x18 }
  - { offsetInCU: 0x120C9, offset: 0x120C9, size: 0x8, addend: 0x0, symName: __ZNSt3__116allocator_traitsINS_9allocatorI4RentEEE10deallocateB8ue170006ERS3_PS2_m, symObjAddr: 0x2368, symBinAddr: 0x100004460, symSize: 0x34 }
  - { offsetInCU: 0x1210B, offset: 0x1210B, size: 0x8, addend: 0x0, symName: __ZNSt3__15dequeI4RentNS_9allocatorIS1_EEE7__allocB8ue170006Ev, symObjAddr: 0x239C, symBinAddr: 0x100004494, symSize: 0x28 }
  - { offsetInCU: 0x12131, offset: 0x12131, size: 0x8, addend: 0x0, symName: __ZNSt3__114__split_bufferIP4RentNS_9allocatorIS2_EEED1Ev, symObjAddr: 0x23C4, symBinAddr: 0x1000044BC, symSize: 0x2C }
  - { offsetInCU: 0x1215D, offset: 0x1215D, size: 0x8, addend: 0x0, symName: __ZNSt3__15dequeI4RentNS_9allocatorIS1_EEE5beginB8ue170006Ev, symObjAddr: 0x23F0, symBinAddr: 0x1000044E8, symSize: 0xC0 }
  - { offsetInCU: 0x12192, offset: 0x12192, size: 0x8, addend: 0x0, symName: __ZNSt3__15dequeI4RentNS_9allocatorIS1_EEE3endB8ue170006Ev, symObjAddr: 0x24B0, symBinAddr: 0x1000045A8, symSize: 0xC4 }
  - { offsetInCU: 0x121D6, offset: 0x121D6, size: 0x8, addend: 0x0, symName: __ZNSt3__116allocator_traitsINS_9allocatorI4RentEEE7destroyB8ue170006IS2_vEEvRS3_PT_, symObjAddr: 0x25B4, symBinAddr: 0x1000046AC, symSize: 0x2C }
  - { offsetInCU: 0x12213, offset: 0x12213, size: 0x8, addend: 0x0, symName: __ZNKSt3__116__deque_iteratorI4RentPS1_RS1_PS2_lLl341EEdeB8ue170006Ev, symObjAddr: 0x25E0, symBinAddr: 0x1000046D8, symSize: 0x18 }
  - { offsetInCU: 0x12239, offset: 0x12239, size: 0x8, addend: 0x0, symName: __ZNSt3__116__deque_iteratorI4RentPS1_RS1_PS2_lLl341EEppB8ue170006Ev, symObjAddr: 0x25F8, symBinAddr: 0x1000046F0, symSize: 0x70 }
  - { offsetInCU: 0x1225F, offset: 0x1225F, size: 0x8, addend: 0x0, symName: __ZNSt3__15dequeI4RentNS_9allocatorIS1_EEE6__sizeB8ue170006Ev, symObjAddr: 0x2668, symBinAddr: 0x100004760, symSize: 0x28 }
  - { offsetInCU: 0x12285, offset: 0x12285, size: 0x8, addend: 0x0, symName: __ZNKSt3__114__split_bufferIP4RentNS_9allocatorIS2_EEE4sizeB8ue170006Ev, symObjAddr: 0x2690, symBinAddr: 0x100004788, symSize: 0x28 }
  - { offsetInCU: 0x122AB, offset: 0x122AB, size: 0x8, addend: 0x0, symName: __ZNSt3__114__split_bufferIP4RentNS_9allocatorIS2_EEE5frontB8ue170006Ev, symObjAddr: 0x26B8, symBinAddr: 0x1000047B0, symSize: 0x18 }
  - { offsetInCU: 0x122D1, offset: 0x122D1, size: 0x8, addend: 0x0, symName: __ZNSt3__114__split_bufferIP4RentNS_9allocatorIS2_EEE9pop_frontB8ue170006Ev, symObjAddr: 0x26D0, symBinAddr: 0x1000047C8, symSize: 0x2C }
  - { offsetInCU: 0x122F7, offset: 0x122F7, size: 0x8, addend: 0x0, symName: __ZNKSt3__15dequeI4RentNS_9allocatorIS1_EEE14__annotate_newB8ue170006Em, symObjAddr: 0x26FC, symBinAddr: 0x1000047F4, symSize: 0xC0 }
  - { offsetInCU: 0x1232C, offset: 0x1232C, size: 0x8, addend: 0x0, symName: __ZNKSt3__114__split_bufferIP4RentNS_9allocatorIS2_EEE5emptyB8ue170006Ev, symObjAddr: 0x27BC, symBinAddr: 0x1000048B4, symSize: 0x28 }
  - { offsetInCU: 0x12352, offset: 0x12352, size: 0x8, addend: 0x0, symName: __ZNSt3__116__deque_iteratorI4RentPS1_RS1_PS2_lLl341EEC1B8ue170006ES4_S2_, symObjAddr: 0x27E4, symBinAddr: 0x1000048DC, symSize: 0x3C }
  - { offsetInCU: 0x1239A, offset: 0x1239A, size: 0x8, addend: 0x0, symName: __ZNSt3__116__deque_iteratorI4RentPS1_RS1_PS2_lLl341EEC2B8ue170006ES4_S2_, symObjAddr: 0x2820, symBinAddr: 0x100004918, symSize: 0x2C }
  - { offsetInCU: 0x123E2, offset: 0x123E2, size: 0x8, addend: 0x0, symName: __ZNKSt3__15dequeI4RentNS_9allocatorIS1_EEE4sizeB8ue170006Ev, symObjAddr: 0x284C, symBinAddr: 0x100004944, symSize: 0x28 }
  - { offsetInCU: 0x12408, offset: 0x12408, size: 0x8, addend: 0x0, symName: __ZNKSt3__15dequeI4RentNS_9allocatorIS1_EEE6__sizeB8ue170006Ev, symObjAddr: 0x2874, symBinAddr: 0x10000496C, symSize: 0x28 }
  - { offsetInCU: 0x1242E, offset: 0x1242E, size: 0x8, addend: 0x0, symName: __ZNKSt3__117__compressed_pairImNS_9allocatorI4RentEEE5firstB8ue170006Ev, symObjAddr: 0x289C, symBinAddr: 0x100004994, symSize: 0x24 }
  - { offsetInCU: 0x12454, offset: 0x12454, size: 0x8, addend: 0x0, symName: __ZNKSt3__122__compressed_pair_elemImLi0ELb0EE5__getB8ue170006Ev, symObjAddr: 0x28C0, symBinAddr: 0x1000049B8, symSize: 0x14 }
  - { offsetInCU: 0x1247A, offset: 0x1247A, size: 0x8, addend: 0x0, symName: __ZNSt3__19allocatorI4RentE7destroyB8ue170006EPS1_, symObjAddr: 0x2904, symBinAddr: 0x1000049FC, symSize: 0x14 }
  - { offsetInCU: 0x124AE, offset: 0x124AE, size: 0x8, addend: 0x0, symName: __ZNSt3__117__compressed_pairImNS_9allocatorI4RentEEE5firstB8ue170006Ev, symObjAddr: 0x2918, symBinAddr: 0x100004A10, symSize: 0x24 }
  - { offsetInCU: 0x124D4, offset: 0x124D4, size: 0x8, addend: 0x0, symName: __ZNSt3__122__compressed_pair_elemImLi0ELb0EE5__getB8ue170006Ev, symObjAddr: 0x293C, symBinAddr: 0x100004A34, symSize: 0x14 }
  - { offsetInCU: 0x124FA, offset: 0x124FA, size: 0x8, addend: 0x0, symName: __ZNSt3__114__split_bufferIP4RentNS_9allocatorIS2_EEE19__destruct_at_beginB8ue170006EPS2_, symObjAddr: 0x2950, symBinAddr: 0x100004A48, symSize: 0x2C }
  - { offsetInCU: 0x1252E, offset: 0x1252E, size: 0x8, addend: 0x0, symName: __ZNSt3__114__split_bufferIP4RentNS_9allocatorIS2_EEE19__destruct_at_beginEPS2_NS_17integral_constantIbLb1EEE, symObjAddr: 0x297C, symBinAddr: 0x100004A74, symSize: 0x20 }
  - { offsetInCU: 0x1256E, offset: 0x1256E, size: 0x8, addend: 0x0, symName: __ZNKSt3__15dequeI4RentNS_9allocatorIS1_EEE18__annotate_from_toB8ue170006EmmNS4_22__asan_annotation_typeENS4_23__asan_annotation_placeE, symObjAddr: 0x299C, symBinAddr: 0x100004A94, symSize: 0x598 }
  - { offsetInCU: 0x1272C, offset: 0x1272C, size: 0x8, addend: 0x0, symName: __ZNKSt3__114__split_bufferIP4RentNS_9allocatorIS2_EEE5beginB8ue170006Ev, symObjAddr: 0x2F34, symBinAddr: 0x10000502C, symSize: 0x18 }
  - { offsetInCU: 0x12752, offset: 0x12752, size: 0x8, addend: 0x0, symName: __ZNKSt3__15dequeI4RentNS_9allocatorIS1_EEE5emptyB8ue170006Ev, symObjAddr: 0x2F4C, symBinAddr: 0x100005044, symSize: 0x30 }
  - { offsetInCU: 0x12778, offset: 0x12778, size: 0x8, addend: 0x0, symName: __ZNKSt3__15dequeI4RentNS_9allocatorIS1_EEE44__annotate_double_ended_contiguous_containerB8ue170006EPKvS6_S6_S6_S6_S6_, symObjAddr: 0x2F90, symBinAddr: 0x100005088, symSize: 0x28 }
  - { offsetInCU: 0x127E0, offset: 0x127E0, size: 0x8, addend: 0x0, symName: __ZNKSt3__15dequeI4RentNS_9allocatorIS1_EEE22__annotate_whole_blockB8ue170006EmNS4_22__asan_annotation_typeE, symObjAddr: 0x2FB8, symBinAddr: 0x1000050B0, symSize: 0xAC }
  - { offsetInCU: 0x12851, offset: 0x12851, size: 0x8, addend: 0x0, symName: __ZNKSt3__15dequeI4RentNS_9allocatorIS1_EEE23__annotate_poison_blockB8ue170006EPKvS6_, symObjAddr: 0x3064, symBinAddr: 0x10000515C, symSize: 0x44 }
  - { offsetInCU: 0x12895, offset: 0x12895, size: 0x8, addend: 0x0, symName: __ZNSt3__19allocatorI4RentE10deallocateB8ue170006EPS1_m, symObjAddr: 0x30A8, symBinAddr: 0x1000051A0, symSize: 0x44 }
  - { offsetInCU: 0x128D7, offset: 0x128D7, size: 0x8, addend: 0x0, symName: __ZNSt3__117__compressed_pairImNS_9allocatorI4RentEEE6secondB8ue170006Ev, symObjAddr: 0x3168, symBinAddr: 0x100005260, symSize: 0x24 }
  - { offsetInCU: 0x128FD, offset: 0x128FD, size: 0x8, addend: 0x0, symName: __ZNSt3__122__compressed_pair_elemINS_9allocatorI4RentEELi1ELb1EE5__getB8ue170006Ev, symObjAddr: 0x318C, symBinAddr: 0x100005284, symSize: 0x14 }
  - { offsetInCU: 0x12923, offset: 0x12923, size: 0x8, addend: 0x0, symName: __ZNSt3__114__split_bufferIP4RentNS_9allocatorIS2_EEED2Ev, symObjAddr: 0x31A0, symBinAddr: 0x100005298, symSize: 0x8C }
  - { offsetInCU: 0x1294F, offset: 0x1294F, size: 0x8, addend: 0x0, symName: __ZNSt3__114__split_bufferIP4RentNS_9allocatorIS2_EEE5clearB8ue170006Ev, symObjAddr: 0x322C, symBinAddr: 0x100005324, symSize: 0x28 }
  - { offsetInCU: 0x12975, offset: 0x12975, size: 0x8, addend: 0x0, symName: __ZNSt3__116allocator_traitsINS_9allocatorIP4RentEEE10deallocateB8ue170006ERS4_PS3_m, symObjAddr: 0x3254, symBinAddr: 0x10000534C, symSize: 0x34 }
  - { offsetInCU: 0x129B7, offset: 0x129B7, size: 0x8, addend: 0x0, symName: __ZNSt3__114__split_bufferIP4RentNS_9allocatorIS2_EEE7__allocB8ue170006Ev, symObjAddr: 0x3288, symBinAddr: 0x100005380, symSize: 0x28 }
  - { offsetInCU: 0x129DD, offset: 0x129DD, size: 0x8, addend: 0x0, symName: __ZNKSt3__114__split_bufferIP4RentNS_9allocatorIS2_EEE8capacityB8ue170006Ev, symObjAddr: 0x32B0, symBinAddr: 0x1000053A8, symSize: 0x40 }
  - { offsetInCU: 0x12A03, offset: 0x12A03, size: 0x8, addend: 0x0, symName: __ZNSt3__114__split_bufferIP4RentNS_9allocatorIS2_EEE17__destruct_at_endB8ue170006EPS2_, symObjAddr: 0x32F0, symBinAddr: 0x1000053E8, symSize: 0x2C }
  - { offsetInCU: 0x12A37, offset: 0x12A37, size: 0x8, addend: 0x0, symName: __ZNSt3__114__split_bufferIP4RentNS_9allocatorIS2_EEE17__destruct_at_endB8ue170006EPS2_NS_17integral_constantIbLb0EEE, symObjAddr: 0x331C, symBinAddr: 0x100005414, symSize: 0x80 }
  - { offsetInCU: 0x12A77, offset: 0x12A77, size: 0x8, addend: 0x0, symName: __ZNSt3__116allocator_traitsINS_9allocatorIP4RentEEE7destroyB8ue170006IS3_vEEvRS4_PT_, symObjAddr: 0x339C, symBinAddr: 0x100005494, symSize: 0x2C }
  - { offsetInCU: 0x12AB4, offset: 0x12AB4, size: 0x8, addend: 0x0, symName: __ZNSt3__19allocatorIP4RentE7destroyB8ue170006EPS2_, symObjAddr: 0x33DC, symBinAddr: 0x1000054D4, symSize: 0x14 }
  - { offsetInCU: 0x12AE8, offset: 0x12AE8, size: 0x8, addend: 0x0, symName: __ZNSt3__19allocatorIP4RentE10deallocateB8ue170006EPS2_m, symObjAddr: 0x33F0, symBinAddr: 0x1000054E8, symSize: 0x40 }
  - { offsetInCU: 0x12B2A, offset: 0x12B2A, size: 0x8, addend: 0x0, symName: __ZNSt3__117__compressed_pairIPP4RentNS_9allocatorIS2_EEE6secondB8ue170006Ev, symObjAddr: 0x3430, symBinAddr: 0x100005528, symSize: 0x24 }
  - { offsetInCU: 0x12B50, offset: 0x12B50, size: 0x8, addend: 0x0, symName: __ZNSt3__122__compressed_pair_elemINS_9allocatorIP4RentEELi1ELb1EE5__getB8ue170006Ev, symObjAddr: 0x3454, symBinAddr: 0x10000554C, symSize: 0x14 }
  - { offsetInCU: 0x12B76, offset: 0x12B76, size: 0x8, addend: 0x0, symName: __ZNKSt3__114__split_bufferIP4RentNS_9allocatorIS2_EEE9__end_capB8ue170006Ev, symObjAddr: 0x3468, symBinAddr: 0x100005560, symSize: 0x28 }
  - { offsetInCU: 0x12B9C, offset: 0x12B9C, size: 0x8, addend: 0x0, symName: __ZNKSt3__117__compressed_pairIPP4RentNS_9allocatorIS2_EEE5firstB8ue170006Ev, symObjAddr: 0x3490, symBinAddr: 0x100005588, symSize: 0x24 }
  - { offsetInCU: 0x12BC2, offset: 0x12BC2, size: 0x8, addend: 0x0, symName: __ZNKSt3__122__compressed_pair_elemIPP4RentLi0ELb0EE5__getB8ue170006Ev, symObjAddr: 0x34B4, symBinAddr: 0x1000055AC, symSize: 0x14 }
  - { offsetInCU: 0x12BE8, offset: 0x12BE8, size: 0x8, addend: 0x0, symName: __ZNSt3__123__libcpp_numeric_limitsIlLb1EE3maxB8ue170006Ev, symObjAddr: 0x34C8, symBinAddr: 0x1000055C0, symSize: 0x8 }
  - { offsetInCU: 0x12BFC, offset: 0x12BFC, size: 0x8, addend: 0x0, symName: __ZN9VideoListC2Ev, symObjAddr: 0x34D0, symBinAddr: 0x1000055C8, symSize: 0x18 }
  - { offsetInCU: 0x12C26, offset: 0x12C26, size: 0x8, addend: 0x0, symName: __ZN9VideoList8addVideoE5Video, symObjAddr: 0x34E8, symBinAddr: 0x1000055E0, symSize: 0x114 }
  - { offsetInCU: 0x12C90, offset: 0x12C90, size: 0x8, addend: 0x0, symName: __ZN5VideoC1ERKS_, symObjAddr: 0x35FC, symBinAddr: 0x1000056F4, symSize: 0x34 }
  - { offsetInCU: 0x12CC5, offset: 0x12CC5, size: 0x8, addend: 0x0, symName: __ZN5VideoD1Ev, symObjAddr: 0x3630, symBinAddr: 0x100005728, symSize: 0x2C }
  - { offsetInCU: 0x12CF1, offset: 0x12CF1, size: 0x8, addend: 0x0, symName: __ZN9VideoList9VideoNodeC1Ev, symObjAddr: 0x365C, symBinAddr: 0x100005754, symSize: 0x2C }
  - { offsetInCU: 0x12D20, offset: 0x12D20, size: 0x8, addend: 0x0, symName: __ZN5VideoaSERKS_, symObjAddr: 0x3688, symBinAddr: 0x100005780, symSize: 0x90 }
  - { offsetInCU: 0x12D51, offset: 0x12D51, size: 0x8, addend: 0x0, symName: __ZN9VideoList9VideoNodeC2Ev, symObjAddr: 0x3718, symBinAddr: 0x100005810, symSize: 0x30 }
  - { offsetInCU: 0x12D7B, offset: 0x12D7B, size: 0x8, addend: 0x0, symName: __ZN5VideoC1Ev, symObjAddr: 0x3748, symBinAddr: 0x100005840, symSize: 0x2C }
  - { offsetInCU: 0x12DA5, offset: 0x12DA5, size: 0x8, addend: 0x0, symName: __ZN5VideoC2Ev, symObjAddr: 0x3774, symBinAddr: 0x10000586C, symSize: 0x118 }
  - { offsetInCU: 0x12DCF, offset: 0x12DCF, size: 0x8, addend: 0x0, symName: __ZNSt3__112basic_stringIcNS_11char_traitsIcEENS_9allocatorIcEEEaSB8ue170006EPKc, symObjAddr: 0x388C, symBinAddr: 0x100005984, symSize: 0x2C }
  - { offsetInCU: 0x12E04, offset: 0x12E04, size: 0x8, addend: 0x0, symName: __ZN5VideoC2ERKS_, symObjAddr: 0x38B8, symBinAddr: 0x1000059B0, symSize: 0x104 }
  - { offsetInCU: 0x12E39, offset: 0x12E39, size: 0x8, addend: 0x0, symName: __ZN5VideoD2Ev, symObjAddr: 0x39BC, symBinAddr: 0x100005AB4, symSize: 0x54 }
  - { offsetInCU: 0x12E65, offset: 0x12E65, size: 0x8, addend: 0x0, symName: __ZNSt3__15queueI8CustomerNS_5dequeIS1_NS_9allocatorIS1_EEEEED2Ev, symObjAddr: 0x3A10, symBinAddr: 0x100005B08, symSize: 0x2C }
  - { offsetInCU: 0x12E92, offset: 0x12E92, size: 0x8, addend: 0x0, symName: __ZNSt3__15dequeI8CustomerNS_9allocatorIS1_EEED1B8ue170006Ev, symObjAddr: 0x3A3C, symBinAddr: 0x100005B34, symSize: 0x2C }
  - { offsetInCU: 0x12EBC, offset: 0x12EBC, size: 0x8, addend: 0x0, symName: __ZNSt3__15dequeI8CustomerNS_9allocatorIS1_EEED2B8ue170006Ev, symObjAddr: 0x3A68, symBinAddr: 0x100005B60, symSize: 0xA4 }
  - { offsetInCU: 0x12F13, offset: 0x12F13, size: 0x8, addend: 0x0, symName: __ZNSt3__15dequeI8CustomerNS_9allocatorIS1_EEE5clearEv, symObjAddr: 0x3B0C, symBinAddr: 0x100005C04, symSize: 0x194 }
  - { offsetInCU: 0x12F6E, offset: 0x12F6E, size: 0x8, addend: 0x0, symName: __ZNKSt3__15dequeI8CustomerNS_9allocatorIS1_EEE17__annotate_deleteB8ue170006Ev, symObjAddr: 0x3CA0, symBinAddr: 0x100005D98, symSize: 0xEC }
  - { offsetInCU: 0x12FB2, offset: 0x12FB2, size: 0x8, addend: 0x0, symName: __ZNSt3__114__split_bufferIP8CustomerNS_9allocatorIS2_EEE5beginB8ue170006Ev, symObjAddr: 0x3D8C, symBinAddr: 0x100005E84, symSize: 0x18 }
  - { offsetInCU: 0x12FD8, offset: 0x12FD8, size: 0x8, addend: 0x0, symName: __ZNSt3__114__split_bufferIP8CustomerNS_9allocatorIS2_EEE3endB8ue170006Ev, symObjAddr: 0x3DA4, symBinAddr: 0x100005E9C, symSize: 0x18 }
  - { offsetInCU: 0x12FFE, offset: 0x12FFE, size: 0x8, addend: 0x0, symName: __ZNSt3__116allocator_traitsINS_9allocatorI8CustomerEEE10deallocateB8ue170006ERS3_PS2_m, symObjAddr: 0x3DBC, symBinAddr: 0x100005EB4, symSize: 0x34 }
  - { offsetInCU: 0x13040, offset: 0x13040, size: 0x8, addend: 0x0, symName: __ZNSt3__15dequeI8CustomerNS_9allocatorIS1_EEE7__allocB8ue170006Ev, symObjAddr: 0x3DF0, symBinAddr: 0x100005EE8, symSize: 0x28 }
  - { offsetInCU: 0x13066, offset: 0x13066, size: 0x8, addend: 0x0, symName: __ZNSt3__114__split_bufferIP8CustomerNS_9allocatorIS2_EEED1Ev, symObjAddr: 0x3E18, symBinAddr: 0x100005F10, symSize: 0x2C }
  - { offsetInCU: 0x13092, offset: 0x13092, size: 0x8, addend: 0x0, symName: __ZNSt3__15dequeI8CustomerNS_9allocatorIS1_EEE5beginB8ue170006Ev, symObjAddr: 0x3E44, symBinAddr: 0x100005F3C, symSize: 0xC0 }
  - { offsetInCU: 0x130C7, offset: 0x130C7, size: 0x8, addend: 0x0, symName: __ZNSt3__15dequeI8CustomerNS_9allocatorIS1_EEE3endB8ue170006Ev, symObjAddr: 0x3F04, symBinAddr: 0x100005FFC, symSize: 0xC4 }
  - { offsetInCU: 0x1310B, offset: 0x1310B, size: 0x8, addend: 0x0, symName: __ZNSt3__116allocator_traitsINS_9allocatorI8CustomerEEE7destroyB8ue170006IS2_vEEvRS3_PT_, symObjAddr: 0x3FFC, symBinAddr: 0x1000060F4, symSize: 0x2C }
  - { offsetInCU: 0x13148, offset: 0x13148, size: 0x8, addend: 0x0, symName: __ZNKSt3__116__deque_iteratorI8CustomerPS1_RS1_PS2_lLl73EEdeB8ue170006Ev, symObjAddr: 0x4028, symBinAddr: 0x100006120, symSize: 0x18 }
  - { offsetInCU: 0x1316E, offset: 0x1316E, size: 0x8, addend: 0x0, symName: __ZNSt3__116__deque_iteratorI8CustomerPS1_RS1_PS2_lLl73EEppB8ue170006Ev, symObjAddr: 0x4040, symBinAddr: 0x100006138, symSize: 0x70 }
  - { offsetInCU: 0x13194, offset: 0x13194, size: 0x8, addend: 0x0, symName: __ZNSt3__15dequeI8CustomerNS_9allocatorIS1_EEE6__sizeB8ue170006Ev, symObjAddr: 0x40B0, symBinAddr: 0x1000061A8, symSize: 0x28 }
  - { offsetInCU: 0x131BA, offset: 0x131BA, size: 0x8, addend: 0x0, symName: __ZNKSt3__114__split_bufferIP8CustomerNS_9allocatorIS2_EEE4sizeB8ue170006Ev, symObjAddr: 0x40D8, symBinAddr: 0x1000061D0, symSize: 0x28 }
  - { offsetInCU: 0x131E0, offset: 0x131E0, size: 0x8, addend: 0x0, symName: __ZNSt3__114__split_bufferIP8CustomerNS_9allocatorIS2_EEE5frontB8ue170006Ev, symObjAddr: 0x4100, symBinAddr: 0x1000061F8, symSize: 0x18 }
  - { offsetInCU: 0x13206, offset: 0x13206, size: 0x8, addend: 0x0, symName: __ZNSt3__114__split_bufferIP8CustomerNS_9allocatorIS2_EEE9pop_frontB8ue170006Ev, symObjAddr: 0x4118, symBinAddr: 0x100006210, symSize: 0x2C }
  - { offsetInCU: 0x1322C, offset: 0x1322C, size: 0x8, addend: 0x0, symName: __ZNKSt3__15dequeI8CustomerNS_9allocatorIS1_EEE14__annotate_newB8ue170006Em, symObjAddr: 0x4144, symBinAddr: 0x10000623C, symSize: 0xC0 }
  - { offsetInCU: 0x13261, offset: 0x13261, size: 0x8, addend: 0x0, symName: __ZNKSt3__114__split_bufferIP8CustomerNS_9allocatorIS2_EEE5emptyB8ue170006Ev, symObjAddr: 0x4204, symBinAddr: 0x1000062FC, symSize: 0x28 }
  - { offsetInCU: 0x13287, offset: 0x13287, size: 0x8, addend: 0x0, symName: __ZNSt3__116__deque_iteratorI8CustomerPS1_RS1_PS2_lLl73EEC1B8ue170006ES4_S2_, symObjAddr: 0x422C, symBinAddr: 0x100006324, symSize: 0x3C }
  - { offsetInCU: 0x132CF, offset: 0x132CF, size: 0x8, addend: 0x0, symName: __ZNSt3__116__deque_iteratorI8CustomerPS1_RS1_PS2_lLl73EEC2B8ue170006ES4_S2_, symObjAddr: 0x4268, symBinAddr: 0x100006360, symSize: 0x2C }
  - { offsetInCU: 0x13317, offset: 0x13317, size: 0x8, addend: 0x0, symName: __ZNKSt3__15dequeI8CustomerNS_9allocatorIS1_EEE4sizeB8ue170006Ev, symObjAddr: 0x4294, symBinAddr: 0x10000638C, symSize: 0x28 }
  - { offsetInCU: 0x1333D, offset: 0x1333D, size: 0x8, addend: 0x0, symName: __ZNKSt3__15dequeI8CustomerNS_9allocatorIS1_EEE6__sizeB8ue170006Ev, symObjAddr: 0x42BC, symBinAddr: 0x1000063B4, symSize: 0x28 }
  - { offsetInCU: 0x13363, offset: 0x13363, size: 0x8, addend: 0x0, symName: __ZNKSt3__117__compressed_pairImNS_9allocatorI8CustomerEEE5firstB8ue170006Ev, symObjAddr: 0x42E4, symBinAddr: 0x1000063DC, symSize: 0x24 }
  - { offsetInCU: 0x13389, offset: 0x13389, size: 0x8, addend: 0x0, symName: __ZNSt3__19allocatorI8CustomerE7destroyB8ue170006EPS1_, symObjAddr: 0x4338, symBinAddr: 0x100006430, symSize: 0x28 }
  - { offsetInCU: 0x133BD, offset: 0x133BD, size: 0x8, addend: 0x0, symName: __ZN8CustomerD1Ev, symObjAddr: 0x4360, symBinAddr: 0x100006458, symSize: 0x2C }
  - { offsetInCU: 0x133E9, offset: 0x133E9, size: 0x8, addend: 0x0, symName: __ZN8CustomerD2Ev, symObjAddr: 0x438C, symBinAddr: 0x100006484, symSize: 0x3C }
  - { offsetInCU: 0x13415, offset: 0x13415, size: 0x8, addend: 0x0, symName: __ZNSt3__117__compressed_pairImNS_9allocatorI8CustomerEEE5firstB8ue170006Ev, symObjAddr: 0x43C8, symBinAddr: 0x1000064C0, symSize: 0x24 }
  - { offsetInCU: 0x1343B, offset: 0x1343B, size: 0x8, addend: 0x0, symName: __ZNSt3__114__split_bufferIP8CustomerNS_9allocatorIS2_EEE19__destruct_at_beginB8ue170006EPS2_, symObjAddr: 0x43EC, symBinAddr: 0x1000064E4, symSize: 0x2C }
  - { offsetInCU: 0x1346F, offset: 0x1346F, size: 0x8, addend: 0x0, symName: __ZNSt3__114__split_bufferIP8CustomerNS_9allocatorIS2_EEE19__destruct_at_beginEPS2_NS_17integral_constantIbLb1EEE, symObjAddr: 0x4418, symBinAddr: 0x100006510, symSize: 0x20 }
  - { offsetInCU: 0x134AF, offset: 0x134AF, size: 0x8, addend: 0x0, symName: __ZNKSt3__15dequeI8CustomerNS_9allocatorIS1_EEE18__annotate_from_toB8ue170006EmmNS4_22__asan_annotation_typeENS4_23__asan_annotation_placeE, symObjAddr: 0x4438, symBinAddr: 0x100006530, symSize: 0x598 }
  - { offsetInCU: 0x1366D, offset: 0x1366D, size: 0x8, addend: 0x0, symName: __ZNKSt3__114__split_bufferIP8CustomerNS_9allocatorIS2_EEE5beginB8ue170006Ev, symObjAddr: 0x49D0, symBinAddr: 0x100006AC8, symSize: 0x18 }
  - { offsetInCU: 0x13693, offset: 0x13693, size: 0x8, addend: 0x0, symName: __ZNKSt3__15dequeI8CustomerNS_9allocatorIS1_EEE5emptyB8ue170006Ev, symObjAddr: 0x49E8, symBinAddr: 0x100006AE0, symSize: 0x30 }
  - { offsetInCU: 0x136B9, offset: 0x136B9, size: 0x8, addend: 0x0, symName: __ZNKSt3__15dequeI8CustomerNS_9allocatorIS1_EEE44__annotate_double_ended_contiguous_containerB8ue170006EPKvS6_S6_S6_S6_S6_, symObjAddr: 0x4A2C, symBinAddr: 0x100006B24, symSize: 0x28 }
  - { offsetInCU: 0x13721, offset: 0x13721, size: 0x8, addend: 0x0, symName: __ZNKSt3__15dequeI8CustomerNS_9allocatorIS1_EEE22__annotate_whole_blockB8ue170006EmNS4_22__asan_annotation_typeE, symObjAddr: 0x4A54, symBinAddr: 0x100006B4C, symSize: 0xAC }
  - { offsetInCU: 0x13792, offset: 0x13792, size: 0x8, addend: 0x0, symName: __ZNKSt3__15dequeI8CustomerNS_9allocatorIS1_EEE23__annotate_poison_blockB8ue170006EPKvS6_, symObjAddr: 0x4B00, symBinAddr: 0x100006BF8, symSize: 0x44 }
  - { offsetInCU: 0x137D6, offset: 0x137D6, size: 0x8, addend: 0x0, symName: __ZNSt3__19allocatorI8CustomerE10deallocateB8ue170006EPS1_m, symObjAddr: 0x4B44, symBinAddr: 0x100006C3C, symSize: 0x44 }
  - { offsetInCU: 0x13818, offset: 0x13818, size: 0x8, addend: 0x0, symName: __ZNSt3__117__compressed_pairImNS_9allocatorI8CustomerEEE6secondB8ue170006Ev, symObjAddr: 0x4B88, symBinAddr: 0x100006C80, symSize: 0x24 }
  - { offsetInCU: 0x1383E, offset: 0x1383E, size: 0x8, addend: 0x0, symName: __ZNSt3__122__compressed_pair_elemINS_9allocatorI8CustomerEELi1ELb1EE5__getB8ue170006Ev, symObjAddr: 0x4BAC, symBinAddr: 0x100006CA4, symSize: 0x14 }
  - { offsetInCU: 0x13864, offset: 0x13864, size: 0x8, addend: 0x0, symName: __ZNSt3__114__split_bufferIP8CustomerNS_9allocatorIS2_EEED2Ev, symObjAddr: 0x4BC0, symBinAddr: 0x100006CB8, symSize: 0x8C }
  - { offsetInCU: 0x13890, offset: 0x13890, size: 0x8, addend: 0x0, symName: __ZNSt3__114__split_bufferIP8CustomerNS_9allocatorIS2_EEE5clearB8ue170006Ev, symObjAddr: 0x4C4C, symBinAddr: 0x100006D44, symSize: 0x28 }
  - { offsetInCU: 0x138B6, offset: 0x138B6, size: 0x8, addend: 0x0, symName: __ZNSt3__116allocator_traitsINS_9allocatorIP8CustomerEEE10deallocateB8ue170006ERS4_PS3_m, symObjAddr: 0x4C74, symBinAddr: 0x100006D6C, symSize: 0x34 }
  - { offsetInCU: 0x138F8, offset: 0x138F8, size: 0x8, addend: 0x0, symName: __ZNSt3__114__split_bufferIP8CustomerNS_9allocatorIS2_EEE7__allocB8ue170006Ev, symObjAddr: 0x4CA8, symBinAddr: 0x100006DA0, symSize: 0x28 }
  - { offsetInCU: 0x1391E, offset: 0x1391E, size: 0x8, addend: 0x0, symName: __ZNKSt3__114__split_bufferIP8CustomerNS_9allocatorIS2_EEE8capacityB8ue170006Ev, symObjAddr: 0x4CD0, symBinAddr: 0x100006DC8, symSize: 0x40 }
  - { offsetInCU: 0x13944, offset: 0x13944, size: 0x8, addend: 0x0, symName: __ZNSt3__114__split_bufferIP8CustomerNS_9allocatorIS2_EEE17__destruct_at_endB8ue170006EPS2_, symObjAddr: 0x4D10, symBinAddr: 0x100006E08, symSize: 0x2C }
  - { offsetInCU: 0x13978, offset: 0x13978, size: 0x8, addend: 0x0, symName: __ZNSt3__114__split_bufferIP8CustomerNS_9allocatorIS2_EEE17__destruct_at_endB8ue170006EPS2_NS_17integral_constantIbLb0EEE, symObjAddr: 0x4D3C, symBinAddr: 0x100006E34, symSize: 0x80 }
  - { offsetInCU: 0x139B8, offset: 0x139B8, size: 0x8, addend: 0x0, symName: __ZNSt3__116allocator_traitsINS_9allocatorIP8CustomerEEE7destroyB8ue170006IS3_vEEvRS4_PT_, symObjAddr: 0x4DBC, symBinAddr: 0x100006EB4, symSize: 0x2C }
  - { offsetInCU: 0x139F5, offset: 0x139F5, size: 0x8, addend: 0x0, symName: __ZNSt3__19allocatorIP8CustomerE7destroyB8ue170006EPS2_, symObjAddr: 0x4DFC, symBinAddr: 0x100006EF4, symSize: 0x14 }
  - { offsetInCU: 0x13A29, offset: 0x13A29, size: 0x8, addend: 0x0, symName: __ZNSt3__19allocatorIP8CustomerE10deallocateB8ue170006EPS2_m, symObjAddr: 0x4E10, symBinAddr: 0x100006F08, symSize: 0x40 }
  - { offsetInCU: 0x13A6B, offset: 0x13A6B, size: 0x8, addend: 0x0, symName: __ZNSt3__117__compressed_pairIPP8CustomerNS_9allocatorIS2_EEE6secondB8ue170006Ev, symObjAddr: 0x4E50, symBinAddr: 0x100006F48, symSize: 0x24 }
  - { offsetInCU: 0x13A91, offset: 0x13A91, size: 0x8, addend: 0x0, symName: __ZNSt3__122__compressed_pair_elemINS_9allocatorIP8CustomerEELi1ELb1EE5__getB8ue170006Ev, symObjAddr: 0x4E74, symBinAddr: 0x100006F6C, symSize: 0x14 }
  - { offsetInCU: 0x13AB7, offset: 0x13AB7, size: 0x8, addend: 0x0, symName: __ZNKSt3__114__split_bufferIP8CustomerNS_9allocatorIS2_EEE9__end_capB8ue170006Ev, symObjAddr: 0x4E88, symBinAddr: 0x100006F80, symSize: 0x28 }
  - { offsetInCU: 0x13ADD, offset: 0x13ADD, size: 0x8, addend: 0x0, symName: __ZNKSt3__117__compressed_pairIPP8CustomerNS_9allocatorIS2_EEE5firstB8ue170006Ev, symObjAddr: 0x4EB0, symBinAddr: 0x100006FA8, symSize: 0x24 }
  - { offsetInCU: 0x13B03, offset: 0x13B03, size: 0x8, addend: 0x0, symName: __ZNKSt3__122__compressed_pair_elemIPP8CustomerLi0ELb0EE5__getB8ue170006Ev, symObjAddr: 0x4ED4, symBinAddr: 0x100006FCC, symSize: 0x14 }
  - { offsetInCU: 0x13B29, offset: 0x13B29, size: 0x8, addend: 0x0, symName: __ZNSt3__112basic_stringIcNS_11char_traitsIcEENS_9allocatorIcEEEC2B8ue170006Ev, symObjAddr: 0x4EE8, symBinAddr: 0x100006FE0, symSize: 0x48 }
  - { offsetInCU: 0x13B58, offset: 0x13B58, size: 0x8, addend: 0x0, symName: __ZNSt3__117__compressed_pairINS_12basic_stringIcNS_11char_traitsIcEENS_9allocatorIcEEE5__repES5_EC1B8ue170006INS_18__default_init_tagESA_EEOT_OT0_, symObjAddr: 0x4F30, symBinAddr: 0x100007028, symSize: 0x3C }
  - { offsetInCU: 0x13BB0, offset: 0x13BB0, size: 0x8, addend: 0x0, symName: __ZNSt3__112basic_stringIcNS_11char_traitsIcEENS_9allocatorIcEEE14__default_initB8ue170006Ev, symObjAddr: 0x4F6C, symBinAddr: 0x100007064, symSize: 0x40 }
  - { offsetInCU: 0x13BD6, offset: 0x13BD6, size: 0x8, addend: 0x0, symName: __ZNSt3__117__compressed_pairINS_12basic_stringIcNS_11char_traitsIcEENS_9allocatorIcEEE5__repES5_EC2B8ue170006INS_18__default_init_tagESA_EEOT_OT0_, symObjAddr: 0x4FAC, symBinAddr: 0x1000070A4, symSize: 0x3C }
  - { offsetInCU: 0x13C2E, offset: 0x13C2E, size: 0x8, addend: 0x0, symName: __ZNSt3__122__compressed_pair_elemINS_12basic_stringIcNS_11char_traitsIcEENS_9allocatorIcEEE5__repELi0ELb0EEC2B8ue170006ENS_18__default_init_tagE, symObjAddr: 0x4FE8, symBinAddr: 0x1000070E0, symSize: 0x14 }
  - { offsetInCU: 0x13C62, offset: 0x13C62, size: 0x8, addend: 0x0, symName: __ZNSt3__122__compressed_pair_elemINS_9allocatorIcEELi1ELb1EEC2B8ue170006ENS_18__default_init_tagE, symObjAddr: 0x4FFC, symBinAddr: 0x1000070F4, symSize: 0x2C }
  - { offsetInCU: 0x13C96, offset: 0x13C96, size: 0x8, addend: 0x0, symName: __ZNSt3__19allocatorIcEC2B8ue170006Ev, symObjAddr: 0x5028, symBinAddr: 0x100007120, symSize: 0x2C }
  - { offsetInCU: 0x13CC0, offset: 0x13CC0, size: 0x8, addend: 0x0, symName: __ZNSt3__116__non_trivial_ifILb1ENS_9allocatorIcEEEC2B8ue170006Ev, symObjAddr: 0x5054, symBinAddr: 0x10000714C, symSize: 0x14 }
  - { offsetInCU: 0x13CEA, offset: 0x13CEA, size: 0x8, addend: 0x0, symName: __ZNSt3__117__compressed_pairINS_12basic_stringIcNS_11char_traitsIcEENS_9allocatorIcEEE5__repES5_E5firstB8ue170006Ev, symObjAddr: 0x5068, symBinAddr: 0x100007160, symSize: 0x24 }
  - { offsetInCU: 0x13D10, offset: 0x13D10, size: 0x8, addend: 0x0, symName: __ZNSt3__122__compressed_pair_elemINS_12basic_stringIcNS_11char_traitsIcEENS_9allocatorIcEEE5__repELi0ELb0EE5__getB8ue170006Ev, symObjAddr: 0x508C, symBinAddr: 0x100007184, symSize: 0x14 }
  - { offsetInCU: 0x13D36, offset: 0x13D36, size: 0x8, addend: 0x0, symName: __ZNSt3__111char_traitsIcE6lengthB8ue170006EPKc, symObjAddr: 0x528C, symBinAddr: 0x100007384, symSize: 0x34 }
  - { offsetInCU: 0x13D77, offset: 0x13D77, size: 0x8, addend: 0x0, symName: __ZNKSt3__113basic_ostreamIcNS_11char_traitsIcEEE6sentrycvbB8ue170006Ev, symObjAddr: 0x52C0, symBinAddr: 0x1000073B8, symSize: 0x1C }
  - { offsetInCU: 0x13D9D, offset: 0x13D9D, size: 0x8, addend: 0x0, symName: __ZNSt3__119ostreambuf_iteratorIcNS_11char_traitsIcEEEC1B8ue170006ERNS_13basic_ostreamIcS2_EE, symObjAddr: 0x551C, symBinAddr: 0x100007614, symSize: 0x34 }
  - { offsetInCU: 0x13DD5, offset: 0x13DD5, size: 0x8, addend: 0x0, symName: __ZNKSt3__18ios_base5flagsB8ue170006Ev, symObjAddr: 0x5550, symBinAddr: 0x100007648, symSize: 0x18 }
  - { offsetInCU: 0x13DFD, offset: 0x13DFD, size: 0x8, addend: 0x0, symName: __ZNKSt3__19basic_iosIcNS_11char_traitsIcEEE4fillB8ue170006Ev, symObjAddr: 0x5568, symBinAddr: 0x100007660, symSize: 0x64 }
  - { offsetInCU: 0x13E25, offset: 0x13E25, size: 0x8, addend: 0x0, symName: __ZNKSt3__119ostreambuf_iteratorIcNS_11char_traitsIcEEE6failedB8ue170006Ev, symObjAddr: 0x55CC, symBinAddr: 0x1000076C4, symSize: 0x24 }
  - { offsetInCU: 0x13E4B, offset: 0x13E4B, size: 0x8, addend: 0x0, symName: __ZNSt3__19basic_iosIcNS_11char_traitsIcEEE8setstateB8ue170006Ej, symObjAddr: 0x55F0, symBinAddr: 0x1000076E8, symSize: 0x2C }
  - { offsetInCU: 0x13E80, offset: 0x13E80, size: 0x8, addend: 0x0, symName: __ZNKSt3__18ios_base5widthB8ue170006Ev, symObjAddr: 0x561C, symBinAddr: 0x100007714, symSize: 0x18 }
  - { offsetInCU: 0x13EA8, offset: 0x13EA8, size: 0x8, addend: 0x0, symName: __ZNSt3__115basic_streambufIcNS_11char_traitsIcEEE5sputnB8ue170006EPKcl, symObjAddr: 0x5634, symBinAddr: 0x10000772C, symSize: 0x3C }
  - { offsetInCU: 0x13EEA, offset: 0x13EEA, size: 0x8, addend: 0x0, symName: __ZNSt3__112basic_stringIcNS_11char_traitsIcEENS_9allocatorIcEEEC1B8ue170006Emc, symObjAddr: 0x5670, symBinAddr: 0x100007768, symSize: 0x3C }
  - { offsetInCU: 0x13F32, offset: 0x13F32, size: 0x8, addend: 0x0, symName: __ZNKSt3__112basic_stringIcNS_11char_traitsIcEENS_9allocatorIcEEE4dataB8ue170006Ev, symObjAddr: 0x56AC, symBinAddr: 0x1000077A4, symSize: 0x28 }
  - { offsetInCU: 0x13F58, offset: 0x13F58, size: 0x8, addend: 0x0, symName: __ZNSt3__18ios_base5widthB8ue170006El, symObjAddr: 0x56D4, symBinAddr: 0x1000077CC, symSize: 0x2C }
  - { offsetInCU: 0x13F9E, offset: 0x13F9E, size: 0x8, addend: 0x0, symName: __ZNSt3__112basic_stringIcNS_11char_traitsIcEENS_9allocatorIcEEEC2B8ue170006Emc, symObjAddr: 0x5700, symBinAddr: 0x1000077F8, symSize: 0x4C }
  - { offsetInCU: 0x13FE6, offset: 0x13FE6, size: 0x8, addend: 0x0, symName: __ZNKSt3__112basic_stringIcNS_11char_traitsIcEENS_9allocatorIcEEE13__get_pointerB8ue170006Ev, symObjAddr: 0x5760, symBinAddr: 0x100007858, symSize: 0x54 }
  - { offsetInCU: 0x1400C, offset: 0x1400C, size: 0x8, addend: 0x0, symName: __ZNKSt3__112basic_stringIcNS_11char_traitsIcEENS_9allocatorIcEEE9__is_longB8ue170006Ev, symObjAddr: 0x57B4, symBinAddr: 0x1000078AC, symSize: 0x38 }
  - { offsetInCU: 0x14032, offset: 0x14032, size: 0x8, addend: 0x0, symName: __ZNKSt3__112basic_stringIcNS_11char_traitsIcEENS_9allocatorIcEEE18__get_long_pointerB8ue170006Ev, symObjAddr: 0x57EC, symBinAddr: 0x1000078E4, symSize: 0x28 }
  - { offsetInCU: 0x14058, offset: 0x14058, size: 0x8, addend: 0x0, symName: __ZNKSt3__112basic_stringIcNS_11char_traitsIcEENS_9allocatorIcEEE19__get_short_pointerB8ue170006Ev, symObjAddr: 0x5814, symBinAddr: 0x10000790C, symSize: 0x28 }
  - { offsetInCU: 0x1407E, offset: 0x1407E, size: 0x8, addend: 0x0, symName: __ZNKSt3__117__compressed_pairINS_12basic_stringIcNS_11char_traitsIcEENS_9allocatorIcEEE5__repES5_E5firstB8ue170006Ev, symObjAddr: 0x583C, symBinAddr: 0x100007934, symSize: 0x24 }
  - { offsetInCU: 0x140A4, offset: 0x140A4, size: 0x8, addend: 0x0, symName: __ZNKSt3__122__compressed_pair_elemINS_12basic_stringIcNS_11char_traitsIcEENS_9allocatorIcEEE5__repELi0ELb0EE5__getB8ue170006Ev, symObjAddr: 0x5860, symBinAddr: 0x100007958, symSize: 0x14 }
  - { offsetInCU: 0x140CA, offset: 0x140CA, size: 0x8, addend: 0x0, symName: __ZNSt3__114pointer_traitsIPKcE10pointer_toB8ue170006ERS1_, symObjAddr: 0x5874, symBinAddr: 0x10000796C, symSize: 0x14 }
  - { offsetInCU: 0x140ED, offset: 0x140ED, size: 0x8, addend: 0x0, symName: __ZNSt3__119ostreambuf_iteratorIcNS_11char_traitsIcEEEC2B8ue170006ERNS_13basic_ostreamIcS2_EE, symObjAddr: 0x5888, symBinAddr: 0x100007980, symSize: 0x54 }
  - { offsetInCU: 0x14125, offset: 0x14125, size: 0x8, addend: 0x0, symName: __ZNKSt3__19basic_iosIcNS_11char_traitsIcEEE5rdbufB8ue170006Ev, symObjAddr: 0x58DC, symBinAddr: 0x1000079D4, symSize: 0x24 }
  - { offsetInCU: 0x1414D, offset: 0x1414D, size: 0x8, addend: 0x0, symName: __ZNKSt3__18ios_base5rdbufB8ue170006Ev, symObjAddr: 0x5900, symBinAddr: 0x1000079F8, symSize: 0x18 }
  - { offsetInCU: 0x14173, offset: 0x14173, size: 0x8, addend: 0x0, symName: __ZNSt3__111char_traitsIcE11eq_int_typeB8ue170006Eii, symObjAddr: 0x5918, symBinAddr: 0x100007A10, symSize: 0x28 }
  - { offsetInCU: 0x141A6, offset: 0x141A6, size: 0x8, addend: 0x0, symName: __ZNSt3__111char_traitsIcE3eofB8ue170006Ev, symObjAddr: 0x5940, symBinAddr: 0x100007A38, symSize: 0x8 }
  - { offsetInCU: 0x141BA, offset: 0x141BA, size: 0x8, addend: 0x0, symName: __ZNKSt3__19basic_iosIcNS_11char_traitsIcEEE5widenB8ue170006Ec, symObjAddr: 0x5948, symBinAddr: 0x100007A40, symSize: 0x84 }
  - { offsetInCU: 0x14219, offset: 0x14219, size: 0x8, addend: 0x0, symName: __ZNKSt3__15ctypeIcE5widenB8ue170006Ec, symObjAddr: 0x59F8, symBinAddr: 0x100007AF0, symSize: 0x38 }
  - { offsetInCU: 0x1424E, offset: 0x1424E, size: 0x8, addend: 0x0, symName: __ZNSt3__18ios_base8setstateB8ue170006Ej, symObjAddr: 0x5A30, symBinAddr: 0x100007B28, symSize: 0x34 }
  - { offsetInCU: 0x1430E, offset: 0x1430E, size: 0x8, addend: 0x0, symName: __ZNKSt3__113basic_istreamIcNS_11char_traitsIcEEE6sentrycvbB8ue170006Ev, symObjAddr: 0x5CC0, symBinAddr: 0x100007DB8, symSize: 0x1C }
  - { offsetInCU: 0x14334, offset: 0x14334, size: 0x8, addend: 0x0, symName: __ZNSt3__112basic_stringIcNS_11char_traitsIcEENS_9allocatorIcEEE5clearB8ue170006Ev, symObjAddr: 0x5CDC, symBinAddr: 0x100007DD4, symSize: 0x78 }
  - { offsetInCU: 0x1435C, offset: 0x1435C, size: 0x8, addend: 0x0, symName: __ZNSt3__115basic_streambufIcNS_11char_traitsIcEEE6sbumpcB8ue170006Ev, symObjAddr: 0x5D54, symBinAddr: 0x100007E4C, symSize: 0x78 }
  - { offsetInCU: 0x14382, offset: 0x14382, size: 0x8, addend: 0x0, symName: __ZNSt3__111char_traitsIcE12to_char_typeB8ue170006Ei, symObjAddr: 0x5DCC, symBinAddr: 0x100007EC4, symSize: 0x18 }
  - { offsetInCU: 0x143A5, offset: 0x143A5, size: 0x8, addend: 0x0, symName: __ZNSt3__111char_traitsIcE2eqEcc, symObjAddr: 0x5DE4, symBinAddr: 0x100007EDC, symSize: 0x28 }
  - { offsetInCU: 0x143D6, offset: 0x143D6, size: 0x8, addend: 0x0, symName: __ZNKSt3__112basic_stringIcNS_11char_traitsIcEENS_9allocatorIcEEE4sizeB8ue170006Ev, symObjAddr: 0x5E0C, symBinAddr: 0x100007F04, symSize: 0x54 }
  - { offsetInCU: 0x143FC, offset: 0x143FC, size: 0x8, addend: 0x0, symName: __ZNKSt3__112basic_stringIcNS_11char_traitsIcEENS_9allocatorIcEEE8max_sizeB8ue170006Ev, symObjAddr: 0x5E60, symBinAddr: 0x100007F58, symSize: 0xAC }
  - { offsetInCU: 0x1444F, offset: 0x1444F, size: 0x8, addend: 0x0, symName: __ZNSt3__18ios_base18__setstate_nothrowB8ue170006Ej, symObjAddr: 0x5F0C, symBinAddr: 0x100008004, symSize: 0x64 }
  - { offsetInCU: 0x14484, offset: 0x14484, size: 0x8, addend: 0x0, symName: __ZNKSt3__19basic_iosIcNS_11char_traitsIcEEE10exceptionsB8ue170006Ev, symObjAddr: 0x5F70, symBinAddr: 0x100008068, symSize: 0x24 }
  - { offsetInCU: 0x144AA, offset: 0x144AA, size: 0x8, addend: 0x0, symName: __ZNSt3__111char_traitsIcE6assignB8ue170006ERcRKc, symObjAddr: 0x5F94, symBinAddr: 0x10000808C, symSize: 0x24 }
  - { offsetInCU: 0x144DB, offset: 0x144DB, size: 0x8, addend: 0x0, symName: __ZNSt3__112basic_stringIcNS_11char_traitsIcEENS_9allocatorIcEEE18__get_long_pointerB8ue170006Ev, symObjAddr: 0x5FB8, symBinAddr: 0x1000080B0, symSize: 0x28 }
  - { offsetInCU: 0x14501, offset: 0x14501, size: 0x8, addend: 0x0, symName: __ZNSt3__112basic_stringIcNS_11char_traitsIcEENS_9allocatorIcEEE15__set_long_sizeB8ue170006Em, symObjAddr: 0x5FE0, symBinAddr: 0x1000080D8, symSize: 0x38 }
  - { offsetInCU: 0x14536, offset: 0x14536, size: 0x8, addend: 0x0, symName: __ZNSt3__112basic_stringIcNS_11char_traitsIcEENS_9allocatorIcEEE19__get_short_pointerB8ue170006Ev, symObjAddr: 0x6018, symBinAddr: 0x100008110, symSize: 0x28 }
  - { offsetInCU: 0x1455C, offset: 0x1455C, size: 0x8, addend: 0x0, symName: __ZNSt3__112basic_stringIcNS_11char_traitsIcEENS_9allocatorIcEEE16__set_short_sizeB8ue170006Em, symObjAddr: 0x6040, symBinAddr: 0x100008138, symSize: 0x78 }
  - { offsetInCU: 0x14591, offset: 0x14591, size: 0x8, addend: 0x0, symName: __ZNSt3__114pointer_traitsIPcE10pointer_toB8ue170006ERc, symObjAddr: 0x60B8, symBinAddr: 0x1000081B0, symSize: 0x14 }
  - { offsetInCU: 0x145B4, offset: 0x145B4, size: 0x8, addend: 0x0, symName: __ZNSt3__111char_traitsIcE11to_int_typeB8ue170006Ec, symObjAddr: 0x60CC, symBinAddr: 0x1000081C4, symSize: 0x14 }
  - { offsetInCU: 0x145D8, offset: 0x145D8, size: 0x8, addend: 0x0, symName: __ZNKSt3__112basic_stringIcNS_11char_traitsIcEENS_9allocatorIcEEE15__get_long_sizeB8ue170006Ev, symObjAddr: 0x60E0, symBinAddr: 0x1000081D8, symSize: 0x28 }
  - { offsetInCU: 0x145FE, offset: 0x145FE, size: 0x8, addend: 0x0, symName: __ZNKSt3__112basic_stringIcNS_11char_traitsIcEENS_9allocatorIcEEE16__get_short_sizeB8ue170006Ev, symObjAddr: 0x6108, symBinAddr: 0x100008200, symSize: 0x34 }
  - { offsetInCU: 0x1462E, offset: 0x1462E, size: 0x8, addend: 0x0, symName: __ZNSt3__116allocator_traitsINS_9allocatorIcEEE8max_sizeB8ue170006IS2_vEEmRKS2_, symObjAddr: 0x613C, symBinAddr: 0x100008234, symSize: 0x24 }
  - { offsetInCU: 0x1465C, offset: 0x1465C, size: 0x8, addend: 0x0, symName: __ZNKSt3__112basic_stringIcNS_11char_traitsIcEENS_9allocatorIcEEE7__allocB8ue170006Ev, symObjAddr: 0x6160, symBinAddr: 0x100008258, symSize: 0x24 }
  - { offsetInCU: 0x14682, offset: 0x14682, size: 0x8, addend: 0x0, symName: __ZNSt3__114numeric_limitsImE3maxB8ue170006Ev, symObjAddr: 0x6184, symBinAddr: 0x10000827C, symSize: 0x14 }
  - { offsetInCU: 0x14696, offset: 0x14696, size: 0x8, addend: 0x0, symName: __ZNKSt3__19allocatorIcE8max_sizeB8ue170006Ev, symObjAddr: 0x6198, symBinAddr: 0x100008290, symSize: 0x14 }
  - { offsetInCU: 0x146BC, offset: 0x146BC, size: 0x8, addend: 0x0, symName: __ZNKSt3__117__compressed_pairINS_12basic_stringIcNS_11char_traitsIcEENS_9allocatorIcEEE5__repES5_E6secondB8ue170006Ev, symObjAddr: 0x61AC, symBinAddr: 0x1000082A4, symSize: 0x24 }
  - { offsetInCU: 0x146E2, offset: 0x146E2, size: 0x8, addend: 0x0, symName: __ZNKSt3__122__compressed_pair_elemINS_9allocatorIcEELi1ELb1EE5__getB8ue170006Ev, symObjAddr: 0x61D0, symBinAddr: 0x1000082C8, symSize: 0x14 }
  - { offsetInCU: 0x14708, offset: 0x14708, size: 0x8, addend: 0x0, symName: __ZNSt3__123__libcpp_numeric_limitsImLb1EE3maxB8ue170006Ev, symObjAddr: 0x61E4, symBinAddr: 0x1000082DC, symSize: 0x8 }
  - { offsetInCU: 0x1471C, offset: 0x1471C, size: 0x8, addend: 0x0, symName: __ZNKSt3__18ios_base10exceptionsB8ue170006Ev, symObjAddr: 0x61EC, symBinAddr: 0x1000082E4, symSize: 0x18 }
  - { offsetInCU: 0x14744, offset: 0x14744, size: 0x8, addend: 0x0, symName: __ZNSt3__115basic_streambufIcNS_11char_traitsIcEEE5sgetcB8ue170006Ev, symObjAddr: 0x6204, symBinAddr: 0x1000082FC, symSize: 0x70 }
  - { offsetInCU: 0x1476A, offset: 0x1476A, size: 0x8, addend: 0x0, symName: __ZNKSt3__15ctypeIcE2isB8ue170006Ejc, symObjAddr: 0x6274, symBinAddr: 0x10000836C, symSize: 0x7C }
  - { offsetInCU: 0x147AD, offset: 0x147AD, size: 0x8, addend: 0x0, symName: __Z7isasciii, symObjAddr: 0x62F0, symBinAddr: 0x1000083E8, symSize: 0x24 }
  - { offsetInCU: 0x147DA, offset: 0x147DA, size: 0x8, addend: 0x0, symName: __ZNSt3__15dequeI4RentNS_9allocatorIS1_EEE9push_backERKS1_, symObjAddr: 0x6314, symBinAddr: 0x10000840C, symSize: 0xAC }
  - { offsetInCU: 0x14820, offset: 0x14820, size: 0x8, addend: 0x0, symName: __ZNKSt3__15dequeI4RentNS_9allocatorIS1_EEE12__back_spareB8ue170006Ev, symObjAddr: 0x63C0, symBinAddr: 0x1000084B8, symSize: 0x54 }
  - { offsetInCU: 0x14846, offset: 0x14846, size: 0x8, addend: 0x0, symName: __ZNSt3__15dequeI4RentNS_9allocatorIS1_EEE19__add_back_capacityEv, symObjAddr: 0x6414, symBinAddr: 0x10000850C, symSize: 0x34C }
  - { offsetInCU: 0x148FE, offset: 0x148FE, size: 0x8, addend: 0x0, symName: __ZNKSt3__15dequeI4RentNS_9allocatorIS1_EEE24__annotate_increase_backB8ue170006Em, symObjAddr: 0x6760, symBinAddr: 0x100008858, symSize: 0x7C }
  - { offsetInCU: 0x14933, offset: 0x14933, size: 0x8, addend: 0x0, symName: __ZNSt3__116allocator_traitsINS_9allocatorI4RentEEE9constructB8ue170006IS2_JRKS2_EvEEvRS3_PT_DpOT0_, symObjAddr: 0x67DC, symBinAddr: 0x1000088D4, symSize: 0x34 }
  - { offsetInCU: 0x1498A, offset: 0x1498A, size: 0x8, addend: 0x0, symName: __ZNKSt3__15dequeI4RentNS_9allocatorIS1_EEE10__capacityB8ue170006Ev, symObjAddr: 0x6810, symBinAddr: 0x100008908, symSize: 0x64 }
  - { offsetInCU: 0x149B0, offset: 0x149B0, size: 0x8, addend: 0x0, symName: __ZNKSt3__15dequeI4RentNS_9allocatorIS1_EEE13__front_spareB8ue170006Ev, symObjAddr: 0x6874, symBinAddr: 0x10000896C, symSize: 0x18 }
  - { offsetInCU: 0x149D6, offset: 0x149D6, size: 0x8, addend: 0x0, symName: __ZNSt3__114__split_bufferIP4RentNS_9allocatorIS2_EEE9push_backB8ue170006ERKS2_, symObjAddr: 0x688C, symBinAddr: 0x100008984, symSize: 0x260 }
  - { offsetInCU: 0x14A4F, offset: 0x14A4F, size: 0x8, addend: 0x0, symName: __ZNKSt3__114__split_bufferIP4RentNS_9allocatorIS2_EEE12__back_spareB8ue170006Ev, symObjAddr: 0x6AEC, symBinAddr: 0x100008BE4, symSize: 0x40 }
  - { offsetInCU: 0x14A75, offset: 0x14A75, size: 0x8, addend: 0x0, symName: __ZNSt3__114__split_bufferIP4RentNS_9allocatorIS2_EEE9push_backEOS2_, symObjAddr: 0x6B2C, symBinAddr: 0x100008C24, symSize: 0x260 }
  - { offsetInCU: 0x14AEE, offset: 0x14AEE, size: 0x8, addend: 0x0, symName: __ZNSt3__116allocator_traitsINS_9allocatorI4RentEEE8allocateB8ue170006ERS3_m, symObjAddr: 0x6D8C, symBinAddr: 0x100008E84, symSize: 0x2C }
  - { offsetInCU: 0x14B21, offset: 0x14B21, size: 0x8, addend: 0x0, symName: __ZNSt3__114__split_bufferIP4RentNS_9allocatorIS2_EEE10push_frontEOS2_, symObjAddr: 0x6DB8, symBinAddr: 0x100008EB0, symSize: 0x25C }
  - { offsetInCU: 0x14B9A, offset: 0x14B9A, size: 0x8, addend: 0x0, symName: __ZNSt3__114__split_bufferIP4RentRNS_9allocatorIS2_EEEC1EmmS5_, symObjAddr: 0x7040, symBinAddr: 0x100009138, symSize: 0x44 }
  - { offsetInCU: 0x14BF5, offset: 0x14BF5, size: 0x8, addend: 0x0, symName: __ZNSt3__122__allocator_destructorINS_9allocatorI4RentEEEC1B8ue170006ERS3_m, symObjAddr: 0x7084, symBinAddr: 0x10000917C, symSize: 0x3C }
  - { offsetInCU: 0x14CB8, offset: 0x14CB8, size: 0x8, addend: 0x0, symName: __ZNSt3__110unique_ptrIP4RentNS_22__allocator_destructorINS_9allocatorIS1_EEEEEC1B8ue170006ILb1EvEES2_NS_16__dependent_typeINS_27__unique_ptr_deleter_sfinaeIS6_EEXT_EE20__good_rval_ref_typeE, symObjAddr: 0x70C0, symBinAddr: 0x1000091B8, symSize: 0x3C }
  - { offsetInCU: 0x14D09, offset: 0x14D09, size: 0x8, addend: 0x0, symName: __ZNSt3__114__split_bufferIP4RentRNS_9allocatorIS2_EEE9push_backEOS2_, symObjAddr: 0x70FC, symBinAddr: 0x1000091F4, symSize: 0x260 }
  - { offsetInCU: 0x14D82, offset: 0x14D82, size: 0x8, addend: 0x0, symName: __ZNKSt3__110unique_ptrIP4RentNS_22__allocator_destructorINS_9allocatorIS1_EEEEE3getB8ue170006Ev, symObjAddr: 0x735C, symBinAddr: 0x100009454, symSize: 0x28 }
  - { offsetInCU: 0x14DA8, offset: 0x14DA8, size: 0x8, addend: 0x0, symName: __ZNSt3__110unique_ptrIP4RentNS_22__allocator_destructorINS_9allocatorIS1_EEEEE7releaseB8ue170006Ev, symObjAddr: 0x7384, symBinAddr: 0x10000947C, symSize: 0x44 }
  - { offsetInCU: 0x14DDD, offset: 0x14DDD, size: 0x8, addend: 0x0, symName: __ZNSt3__114__split_bufferIP4RentRNS_9allocatorIS2_EEE10push_frontERKS2_, symObjAddr: 0x73C8, symBinAddr: 0x1000094C0, symSize: 0x25C }
  - { offsetInCU: 0x14E56, offset: 0x14E56, size: 0x8, addend: 0x0, symName: __ZNSt3__114__split_bufferIP4RentNS_9allocatorIS2_EEE9__end_capB8ue170006Ev, symObjAddr: 0x7660, symBinAddr: 0x100009758, symSize: 0x28 }
  - { offsetInCU: 0x14E7C, offset: 0x14E7C, size: 0x8, addend: 0x0, symName: __ZNSt3__114__split_bufferIP4RentRNS_9allocatorIS2_EEE9__end_capB8ue170006Ev, symObjAddr: 0x7688, symBinAddr: 0x100009780, symSize: 0x28 }
  - { offsetInCU: 0x14EA2, offset: 0x14EA2, size: 0x8, addend: 0x0, symName: __ZNSt3__110unique_ptrIP4RentNS_22__allocator_destructorINS_9allocatorIS1_EEEEED1B8ue170006Ev, symObjAddr: 0x76B0, symBinAddr: 0x1000097A8, symSize: 0x2C }
  - { offsetInCU: 0x14ECC, offset: 0x14ECC, size: 0x8, addend: 0x0, symName: __ZNSt3__114__split_bufferIP4RentRNS_9allocatorIS2_EEED1Ev, symObjAddr: 0x76DC, symBinAddr: 0x1000097D4, symSize: 0x2C }
  - { offsetInCU: 0x14EF8, offset: 0x14EF8, size: 0x8, addend: 0x0, symName: __ZNSt3__114__split_bufferIP4RentRNS_9allocatorIS2_EEE18__construct_at_endINS_13move_iteratorIPS2_EEEENS_9enable_ifIXsr31__has_forward_iterator_categoryIT_EE5valueEvE4typeESC_SC_, symObjAddr: 0x7748, symBinAddr: 0x100009840, symSize: 0x60 }
  - { offsetInCU: 0x14F45, offset: 0x14F45, size: 0x8, addend: 0x0, symName: __ZNSt3__113move_iteratorIPP4RentEC1B8ue170006ES3_, symObjAddr: 0x77A8, symBinAddr: 0x1000098A0, symSize: 0x34 }
  - { offsetInCU: 0x14F7D, offset: 0x14F7D, size: 0x8, addend: 0x0, symName: __ZNSt3__116allocator_traitsINS_9allocatorIP4RentEEE9constructB8ue170006IS3_JRKS3_EvEEvRS4_PT_DpOT0_, symObjAddr: 0x77DC, symBinAddr: 0x1000098D4, symSize: 0x34 }
  - { offsetInCU: 0x14FF7, offset: 0x14FF7, size: 0x8, addend: 0x0, symName: __ZNKSt3__114__move_trivialclB8ue170006IP4RentS3_Li0EEENS_4pairIPT_PT0_EES6_S6_S8_, symObjAddr: 0x79AC, symBinAddr: 0x100009AA4, symSize: 0x48 }
  - { offsetInCU: 0x15064, offset: 0x15064, size: 0x8, addend: 0x0, symName: __ZNSt3__14pairIPP4RentS3_EC1B8ue170006IRS3_S3_LPv0EEEOT_OT0_, symObjAddr: 0x7BD4, symBinAddr: 0x100009CCC, symSize: 0x3C }
  - { offsetInCU: 0x150C2, offset: 0x150C2, size: 0x8, addend: 0x0, symName: __ZNSt3__14pairIPP4RentS3_EC2B8ue170006IRS3_S3_LPv0EEEOT_OT0_, symObjAddr: 0x7C10, symBinAddr: 0x100009D08, symSize: 0x34 }
  - { offsetInCU: 0x15120, offset: 0x15120, size: 0x8, addend: 0x0, symName: __ZNSt3__118__unwrap_iter_implIPP4RentLb1EE8__unwrapB8ue170006ES3_, symObjAddr: 0x7C44, symBinAddr: 0x100009D3C, symSize: 0x24 }
  - { offsetInCU: 0x15143, offset: 0x15143, size: 0x8, addend: 0x0, symName: __ZNSt3__14pairIPP4RentS3_EC1B8ue170006IS3_S3_LPv0EEEOT_OT0_, symObjAddr: 0x7C68, symBinAddr: 0x100009D60, symSize: 0x3C }
  - { offsetInCU: 0x151A1, offset: 0x151A1, size: 0x8, addend: 0x0, symName: __ZNSt3__14pairIPP4RentS3_EC2B8ue170006IS3_S3_LPv0EEEOT_OT0_, symObjAddr: 0x7CA4, symBinAddr: 0x100009D9C, symSize: 0x34 }
  - { offsetInCU: 0x151FF, offset: 0x151FF, size: 0x8, addend: 0x0, symName: __ZNSt3__118__unwrap_iter_implIPP4RentLb1EE8__rewrapB8ue170006ES3_S3_, symObjAddr: 0x7CD8, symBinAddr: 0x100009DD0, symSize: 0x50 }
  - { offsetInCU: 0x15230, offset: 0x15230, size: 0x8, addend: 0x0, symName: __ZNSt3__114__split_bufferIP4RentRNS_9allocatorIS2_EEE28__construct_at_end_with_sizeINS_13move_iteratorIPS2_EEEEvT_m, symObjAddr: 0x7D28, symBinAddr: 0x100009E20, symSize: 0xDC }
  - { offsetInCU: 0x15296, offset: 0x15296, size: 0x8, addend: 0x0, symName: __ZNSt3__114__split_bufferIP4RentRNS_9allocatorIS2_EEE21_ConstructTransactionC1B8ue170006EPPS2_m, symObjAddr: 0x7E40, symBinAddr: 0x100009F38, symSize: 0x3C }
  - { offsetInCU: 0x152DC, offset: 0x152DC, size: 0x8, addend: 0x0, symName: __ZNSt3__116allocator_traitsINS_9allocatorIP4RentEEE9constructB8ue170006IS3_JS3_EvEEvRS4_PT_DpOT0_, symObjAddr: 0x7E7C, symBinAddr: 0x100009F74, symSize: 0x34 }
  - { offsetInCU: 0x15333, offset: 0x15333, size: 0x8, addend: 0x0, symName: __ZNSt3__114__split_bufferIP4RentRNS_9allocatorIS2_EEE7__allocB8ue170006Ev, symObjAddr: 0x7EB0, symBinAddr: 0x100009FA8, symSize: 0x28 }
  - { offsetInCU: 0x15359, offset: 0x15359, size: 0x8, addend: 0x0, symName: __ZNKSt3__113move_iteratorIPP4RentEdeB8ue170006Ev, symObjAddr: 0x7ED8, symBinAddr: 0x100009FD0, symSize: 0x18 }
  - { offsetInCU: 0x1537F, offset: 0x1537F, size: 0x8, addend: 0x0, symName: __ZNSt3__113move_iteratorIPP4RentEppB8ue170006Ev, symObjAddr: 0x7EF0, symBinAddr: 0x100009FE8, symSize: 0x20 }
  - { offsetInCU: 0x153A5, offset: 0x153A5, size: 0x8, addend: 0x0, symName: __ZNSt3__114__split_bufferIP4RentRNS_9allocatorIS2_EEE21_ConstructTransactionD1B8ue170006Ev, symObjAddr: 0x7F10, symBinAddr: 0x10000A008, symSize: 0x2C }
  - { offsetInCU: 0x153CF, offset: 0x153CF, size: 0x8, addend: 0x0, symName: __ZNSt3__114__split_bufferIP4RentRNS_9allocatorIS2_EEE21_ConstructTransactionC2B8ue170006EPPS2_m, symObjAddr: 0x7F3C, symBinAddr: 0x10000A034, symSize: 0x44 }
  - { offsetInCU: 0x15415, offset: 0x15415, size: 0x8, addend: 0x0, symName: __ZNSt3__19allocatorIP4RentE9constructB8ue170006IS2_JS2_EEEvPT_DpOT0_, symObjAddr: 0x7F80, symBinAddr: 0x10000A078, symSize: 0x28 }
  - { offsetInCU: 0x1546B, offset: 0x1546B, size: 0x8, addend: 0x0, symName: __ZNSt3__117__compressed_pairIPP4RentRNS_9allocatorIS2_EEE6secondB8ue170006Ev, symObjAddr: 0x7FA8, symBinAddr: 0x10000A0A0, symSize: 0x28 }
  - { offsetInCU: 0x15491, offset: 0x15491, size: 0x8, addend: 0x0, symName: __ZNSt3__122__compressed_pair_elemIRNS_9allocatorIP4RentEELi1ELb0EE5__getB8ue170006Ev, symObjAddr: 0x7FD0, symBinAddr: 0x10000A0C8, symSize: 0x18 }
  - { offsetInCU: 0x154B7, offset: 0x154B7, size: 0x8, addend: 0x0, symName: __ZNSt3__114__split_bufferIP4RentRNS_9allocatorIS2_EEE21_ConstructTransactionD2B8ue170006Ev, symObjAddr: 0x7FE8, symBinAddr: 0x10000A0E0, symSize: 0x20 }
  - { offsetInCU: 0x154E1, offset: 0x154E1, size: 0x8, addend: 0x0, symName: __ZNKSt3__113move_iteratorIPP4RentE4baseB8ue170006Ev, symObjAddr: 0x8080, symBinAddr: 0x10000A178, symSize: 0x18 }
  - { offsetInCU: 0x15507, offset: 0x15507, size: 0x8, addend: 0x0, symName: __ZNSt3__113move_iteratorIPP4RentEC2B8ue170006ES3_, symObjAddr: 0x8098, symBinAddr: 0x10000A190, symSize: 0x20 }
  - { offsetInCU: 0x1553F, offset: 0x1553F, size: 0x8, addend: 0x0, symName: __ZNSt3__19allocatorIP4RentE9constructB8ue170006IS2_JRKS2_EEEvPT_DpOT0_, symObjAddr: 0x80B8, symBinAddr: 0x10000A1B0, symSize: 0x28 }
  - { offsetInCU: 0x15595, offset: 0x15595, size: 0x8, addend: 0x0, symName: __ZNSt3__19allocatorI4RentE8allocateB8ue170006Em, symObjAddr: 0x80E0, symBinAddr: 0x10000A1D8, symSize: 0x5C }
  - { offsetInCU: 0x155D3, offset: 0x155D3, size: 0x8, addend: 0x0, symName: __ZNSt3__116allocator_traitsINS_9allocatorI4RentEEE8max_sizeB8ue170006IS3_vEEmRKS3_, symObjAddr: 0x813C, symBinAddr: 0x10000A234, symSize: 0x24 }
  - { offsetInCU: 0x15601, offset: 0x15601, size: 0x8, addend: 0x0, symName: __ZNKSt3__19allocatorI4RentE8max_sizeB8ue170006Ev, symObjAddr: 0x81BC, symBinAddr: 0x10000A2B4, symSize: 0x18 }
  - { offsetInCU: 0x15631, offset: 0x15631, size: 0x8, addend: 0x0, symName: __ZNKSt3__123__move_backward_trivialclB8ue170006IP4RentS3_Li0EEENS_4pairIPT_PT0_EES6_S6_S8_, symObjAddr: 0x8374, symBinAddr: 0x10000A46C, symSize: 0x48 }
  - { offsetInCU: 0x15699, offset: 0x15699, size: 0x8, addend: 0x0, symName: __ZNSt3__14pairIPP4RentS3_EC1B8ue170006IRS3_S6_LPv0EEEOT_OT0_, symObjAddr: 0x8484, symBinAddr: 0x10000A57C, symSize: 0x3C }
  - { offsetInCU: 0x156F7, offset: 0x156F7, size: 0x8, addend: 0x0, symName: __ZNSt3__14pairIPP4RentS3_EC2B8ue170006IRS3_S6_LPv0EEEOT_OT0_, symObjAddr: 0x84C0, symBinAddr: 0x10000A5B8, symSize: 0x34 }
  - { offsetInCU: 0x1575F, offset: 0x1575F, size: 0x8, addend: 0x0, symName: __ZNKSt3__16__lessIvvEclB8ue170006ImmEEbRKT_RKT0_, symObjAddr: 0x8548, symBinAddr: 0x10000A640, symSize: 0x34 }
  - { offsetInCU: 0x157B3, offset: 0x157B3, size: 0x8, addend: 0x0, symName: __ZNSt3__114__split_bufferIP4RentRNS_9allocatorIS2_EEEC2EmmS5_, symObjAddr: 0x857C, symBinAddr: 0x10000A674, symSize: 0xD4 }
  - { offsetInCU: 0x1582C, offset: 0x1582C, size: 0x8, addend: 0x0, symName: __ZNSt3__117__compressed_pairIPP4RentRNS_9allocatorIS2_EEEC1B8ue170006IDnS6_EEOT_OT0_, symObjAddr: 0x8650, symBinAddr: 0x10000A748, symSize: 0x3C }
  - { offsetInCU: 0x15884, offset: 0x15884, size: 0x8, addend: 0x0, symName: __ZNSt3__117__compressed_pairIPP4RentRNS_9allocatorIS2_EEEC2B8ue170006IDnS6_EEOT_OT0_, symObjAddr: 0x86CC, symBinAddr: 0x10000A7C4, symSize: 0x48 }
  - { offsetInCU: 0x158DC, offset: 0x158DC, size: 0x8, addend: 0x0, symName: __ZNSt3__122__compressed_pair_elemIPP4RentLi0ELb0EEC2B8ue170006IDnvEEOT_, symObjAddr: 0x8714, symBinAddr: 0x10000A80C, symSize: 0x1C }
  - { offsetInCU: 0x1591E, offset: 0x1591E, size: 0x8, addend: 0x0, symName: __ZNSt3__122__compressed_pair_elemIRNS_9allocatorIP4RentEELi1ELb0EEC2B8ue170006IS5_vEEOT_, symObjAddr: 0x8730, symBinAddr: 0x10000A828, symSize: 0x20 }
  - { offsetInCU: 0x15960, offset: 0x15960, size: 0x8, addend: 0x0, symName: __ZNSt3__19allocatorIP4RentE8allocateB8ue170006Em, symObjAddr: 0x8750, symBinAddr: 0x10000A848, symSize: 0x58 }
  - { offsetInCU: 0x1599E, offset: 0x1599E, size: 0x8, addend: 0x0, symName: __ZNSt3__116allocator_traitsINS_9allocatorIP4RentEEE8max_sizeB8ue170006IS4_vEEmRKS4_, symObjAddr: 0x87A8, symBinAddr: 0x10000A8A0, symSize: 0x24 }
  - { offsetInCU: 0x159CC, offset: 0x159CC, size: 0x8, addend: 0x0, symName: __ZNKSt3__19allocatorIP4RentE8max_sizeB8ue170006Ev, symObjAddr: 0x87CC, symBinAddr: 0x10000A8C4, symSize: 0x14 }
  - { offsetInCU: 0x159F2, offset: 0x159F2, size: 0x8, addend: 0x0, symName: __ZNSt3__122__allocator_destructorINS_9allocatorI4RentEEEC2B8ue170006ERS3_m, symObjAddr: 0x87E0, symBinAddr: 0x10000A8D8, symSize: 0x2C }
  - { offsetInCU: 0x15A38, offset: 0x15A38, size: 0x8, addend: 0x0, symName: __ZNSt3__110unique_ptrIP4RentNS_22__allocator_destructorINS_9allocatorIS1_EEEEEC2B8ue170006ILb1EvEES2_NS_16__dependent_typeINS_27__unique_ptr_deleter_sfinaeIS6_EEXT_EE20__good_rval_ref_typeE, symObjAddr: 0x880C, symBinAddr: 0x10000A904, symSize: 0x48 }
  - { offsetInCU: 0x15A89, offset: 0x15A89, size: 0x8, addend: 0x0, symName: __ZNSt3__117__compressed_pairIP4RentNS_22__allocator_destructorINS_9allocatorIS1_EEEEEC1B8ue170006IRS2_S6_EEOT_OT0_, symObjAddr: 0x8854, symBinAddr: 0x10000A94C, symSize: 0x3C }
  - { offsetInCU: 0x15AE1, offset: 0x15AE1, size: 0x8, addend: 0x0, symName: __ZNSt3__117__compressed_pairIP4RentNS_22__allocator_destructorINS_9allocatorIS1_EEEEEC2B8ue170006IRS2_S6_EEOT_OT0_, symObjAddr: 0x8890, symBinAddr: 0x10000A988, symSize: 0x48 }
  - { offsetInCU: 0x15B39, offset: 0x15B39, size: 0x8, addend: 0x0, symName: __ZNSt3__122__compressed_pair_elemIP4RentLi0ELb0EEC2B8ue170006IRS2_vEEOT_, symObjAddr: 0x88D8, symBinAddr: 0x10000A9D0, symSize: 0x24 }
  - { offsetInCU: 0x15B7B, offset: 0x15B7B, size: 0x8, addend: 0x0, symName: __ZNSt3__122__compressed_pair_elemINS_22__allocator_destructorINS_9allocatorI4RentEEEELi1ELb0EEC2B8ue170006IS5_vEEOT_, symObjAddr: 0x88FC, symBinAddr: 0x10000A9F4, symSize: 0x24 }
  - { offsetInCU: 0x15BBD, offset: 0x15BBD, size: 0x8, addend: 0x0, symName: __ZNKSt3__117__compressed_pairIP4RentNS_22__allocator_destructorINS_9allocatorIS1_EEEEE5firstB8ue170006Ev, symObjAddr: 0x8920, symBinAddr: 0x10000AA18, symSize: 0x24 }
  - { offsetInCU: 0x15BE3, offset: 0x15BE3, size: 0x8, addend: 0x0, symName: __ZNKSt3__122__compressed_pair_elemIP4RentLi0ELb0EE5__getB8ue170006Ev, symObjAddr: 0x8944, symBinAddr: 0x10000AA3C, symSize: 0x14 }
  - { offsetInCU: 0x15C09, offset: 0x15C09, size: 0x8, addend: 0x0, symName: __ZNSt3__117__compressed_pairIP4RentNS_22__allocator_destructorINS_9allocatorIS1_EEEEE5firstB8ue170006Ev, symObjAddr: 0x8958, symBinAddr: 0x10000AA50, symSize: 0x24 }
  - { offsetInCU: 0x15C2F, offset: 0x15C2F, size: 0x8, addend: 0x0, symName: __ZNSt3__122__compressed_pair_elemIP4RentLi0ELb0EE5__getB8ue170006Ev, symObjAddr: 0x897C, symBinAddr: 0x10000AA74, symSize: 0x14 }
  - { offsetInCU: 0x15C55, offset: 0x15C55, size: 0x8, addend: 0x0, symName: __ZNSt3__117__compressed_pairIPP4RentNS_9allocatorIS2_EEE5firstB8ue170006Ev, symObjAddr: 0x8990, symBinAddr: 0x10000AA88, symSize: 0x24 }
  - { offsetInCU: 0x15C7B, offset: 0x15C7B, size: 0x8, addend: 0x0, symName: __ZNSt3__122__compressed_pair_elemIPP4RentLi0ELb0EE5__getB8ue170006Ev, symObjAddr: 0x89B4, symBinAddr: 0x10000AAAC, symSize: 0x14 }
  - { offsetInCU: 0x15CA1, offset: 0x15CA1, size: 0x8, addend: 0x0, symName: __ZNSt3__117__compressed_pairIPP4RentRNS_9allocatorIS2_EEE5firstB8ue170006Ev, symObjAddr: 0x89C8, symBinAddr: 0x10000AAC0, symSize: 0x24 }
  - { offsetInCU: 0x15CC7, offset: 0x15CC7, size: 0x8, addend: 0x0, symName: __ZNSt3__110unique_ptrIP4RentNS_22__allocator_destructorINS_9allocatorIS1_EEEEED2B8ue170006Ev, symObjAddr: 0x89EC, symBinAddr: 0x10000AAE4, symSize: 0x30 }
  - { offsetInCU: 0x15CF1, offset: 0x15CF1, size: 0x8, addend: 0x0, symName: __ZNSt3__110unique_ptrIP4RentNS_22__allocator_destructorINS_9allocatorIS1_EEEEE5resetB8ue170006ES2_, symObjAddr: 0x8A1C, symBinAddr: 0x10000AB14, symSize: 0x78 }
  - { offsetInCU: 0x15D35, offset: 0x15D35, size: 0x8, addend: 0x0, symName: __ZNSt3__117__compressed_pairIP4RentNS_22__allocator_destructorINS_9allocatorIS1_EEEEE6secondB8ue170006Ev, symObjAddr: 0x8A94, symBinAddr: 0x10000AB8C, symSize: 0x28 }
  - { offsetInCU: 0x15D5B, offset: 0x15D5B, size: 0x8, addend: 0x0, symName: __ZNSt3__122__allocator_destructorINS_9allocatorI4RentEEEclB8ue170006EPS2_, symObjAddr: 0x8ABC, symBinAddr: 0x10000ABB4, symSize: 0x34 }
  - { offsetInCU: 0x15D8F, offset: 0x15D8F, size: 0x8, addend: 0x0, symName: __ZNSt3__122__compressed_pair_elemINS_22__allocator_destructorINS_9allocatorI4RentEEEELi1ELb0EE5__getB8ue170006Ev, symObjAddr: 0x8AF0, symBinAddr: 0x10000ABE8, symSize: 0x14 }
  - { offsetInCU: 0x15DB5, offset: 0x15DB5, size: 0x8, addend: 0x0, symName: __ZNSt3__114__split_bufferIP4RentRNS_9allocatorIS2_EEED2Ev, symObjAddr: 0x8B04, symBinAddr: 0x10000ABFC, symSize: 0x8C }
  - { offsetInCU: 0x15DE1, offset: 0x15DE1, size: 0x8, addend: 0x0, symName: __ZNSt3__114__split_bufferIP4RentRNS_9allocatorIS2_EEE5clearB8ue170006Ev, symObjAddr: 0x8B90, symBinAddr: 0x10000AC88, symSize: 0x28 }
  - { offsetInCU: 0x15E07, offset: 0x15E07, size: 0x8, addend: 0x0, symName: __ZNKSt3__114__split_bufferIP4RentRNS_9allocatorIS2_EEE8capacityB8ue170006Ev, symObjAddr: 0x8BB8, symBinAddr: 0x10000ACB0, symSize: 0x40 }
  - { offsetInCU: 0x15E2D, offset: 0x15E2D, size: 0x8, addend: 0x0, symName: __ZNSt3__114__split_bufferIP4RentRNS_9allocatorIS2_EEE17__destruct_at_endB8ue170006EPS2_, symObjAddr: 0x8BF8, symBinAddr: 0x10000ACF0, symSize: 0x2C }
  - { offsetInCU: 0x15E61, offset: 0x15E61, size: 0x8, addend: 0x0, symName: __ZNSt3__114__split_bufferIP4RentRNS_9allocatorIS2_EEE17__destruct_at_endB8ue170006EPS2_NS_17integral_constantIbLb0EEE, symObjAddr: 0x8C24, symBinAddr: 0x10000AD1C, symSize: 0x80 }
  - { offsetInCU: 0x15EA1, offset: 0x15EA1, size: 0x8, addend: 0x0, symName: __ZNKSt3__114__split_bufferIP4RentRNS_9allocatorIS2_EEE9__end_capB8ue170006Ev, symObjAddr: 0x8CA4, symBinAddr: 0x10000AD9C, symSize: 0x28 }
  - { offsetInCU: 0x15EC7, offset: 0x15EC7, size: 0x8, addend: 0x0, symName: __ZNKSt3__117__compressed_pairIPP4RentRNS_9allocatorIS2_EEE5firstB8ue170006Ev, symObjAddr: 0x8CCC, symBinAddr: 0x10000ADC4, symSize: 0x24 }
  - { offsetInCU: 0x15EED, offset: 0x15EED, size: 0x8, addend: 0x0, symName: __ZNSt3__19allocatorI4RentE9constructB8ue170006IS1_JRKS1_EEEvPT_DpOT0_, symObjAddr: 0x8CF0, symBinAddr: 0x10000ADE8, symSize: 0x30 }
  - { offsetInCU: 0x15F43, offset: 0x15F43, size: 0x8, addend: 0x0, symName: __ZNSt3__15stackI4RentNS_5dequeIS1_NS_9allocatorIS1_EEEEEC2B8ue170006Ev, symObjAddr: 0x8D20, symBinAddr: 0x10000AE18, symSize: 0x2C }
  - { offsetInCU: 0x15F6D, offset: 0x15F6D, size: 0x8, addend: 0x0, symName: __ZNSt3__15dequeI4RentNS_9allocatorIS1_EEEC1B8ue170006Ev, symObjAddr: 0x8D4C, symBinAddr: 0x10000AE44, symSize: 0x2C }
  - { offsetInCU: 0x15F97, offset: 0x15F97, size: 0x8, addend: 0x0, symName: __ZNSt3__15dequeI4RentNS_9allocatorIS1_EEEC2B8ue170006Ev, symObjAddr: 0x8D78, symBinAddr: 0x10000AE70, symSize: 0x5C }
  - { offsetInCU: 0x15FC1, offset: 0x15FC1, size: 0x8, addend: 0x0, symName: __ZNSt3__114__split_bufferIP4RentNS_9allocatorIS2_EEEC1B8ue170006Ev, symObjAddr: 0x8DD4, symBinAddr: 0x10000AECC, symSize: 0x2C }
  - { offsetInCU: 0x15FF0, offset: 0x15FF0, size: 0x8, addend: 0x0, symName: __ZNSt3__117__compressed_pairImNS_9allocatorI4RentEEEC1B8ue170006IiNS_18__default_init_tagEEEOT_OT0_, symObjAddr: 0x8E00, symBinAddr: 0x10000AEF8, symSize: 0x3C }
  - { offsetInCU: 0x16048, offset: 0x16048, size: 0x8, addend: 0x0, symName: __ZNSt3__114__split_bufferIP4RentNS_9allocatorIS2_EEEC2B8ue170006Ev, symObjAddr: 0x8E3C, symBinAddr: 0x10000AF34, symSize: 0x50 }
  - { offsetInCU: 0x16072, offset: 0x16072, size: 0x8, addend: 0x0, symName: __ZNSt3__117__compressed_pairIPP4RentNS_9allocatorIS2_EEEC1B8ue170006IDnNS_18__default_init_tagEEEOT_OT0_, symObjAddr: 0x8E8C, symBinAddr: 0x10000AF84, symSize: 0x3C }
  - { offsetInCU: 0x160CA, offset: 0x160CA, size: 0x8, addend: 0x0, symName: __ZNSt3__117__compressed_pairIPP4RentNS_9allocatorIS2_EEEC2B8ue170006IDnNS_18__default_init_tagEEEOT_OT0_, symObjAddr: 0x8EC8, symBinAddr: 0x10000AFC0, symSize: 0x40 }
  - { offsetInCU: 0x16122, offset: 0x16122, size: 0x8, addend: 0x0, symName: __ZNSt3__122__compressed_pair_elemINS_9allocatorIP4RentEELi1ELb1EEC2B8ue170006ENS_18__default_init_tagE, symObjAddr: 0x8F08, symBinAddr: 0x10000B000, symSize: 0x2C }
  - { offsetInCU: 0x16156, offset: 0x16156, size: 0x8, addend: 0x0, symName: __ZNSt3__19allocatorIP4RentEC2B8ue170006Ev, symObjAddr: 0x8F34, symBinAddr: 0x10000B02C, symSize: 0x2C }
  - { offsetInCU: 0x16180, offset: 0x16180, size: 0x8, addend: 0x0, symName: __ZNSt3__116__non_trivial_ifILb1ENS_9allocatorIP4RentEEEC2B8ue170006Ev, symObjAddr: 0x8F60, symBinAddr: 0x10000B058, symSize: 0x14 }
  - { offsetInCU: 0x161AA, offset: 0x161AA, size: 0x8, addend: 0x0, symName: __ZNSt3__117__compressed_pairImNS_9allocatorI4RentEEEC2B8ue170006IiNS_18__default_init_tagEEEOT_OT0_, symObjAddr: 0x8F74, symBinAddr: 0x10000B06C, symSize: 0x40 }
  - { offsetInCU: 0x16202, offset: 0x16202, size: 0x8, addend: 0x0, symName: __ZNSt3__122__compressed_pair_elemImLi0ELb0EEC2B8ue170006IivEEOT_, symObjAddr: 0x8FB4, symBinAddr: 0x10000B0AC, symSize: 0x24 }
  - { offsetInCU: 0x16244, offset: 0x16244, size: 0x8, addend: 0x0, symName: __ZNSt3__122__compressed_pair_elemINS_9allocatorI4RentEELi1ELb1EEC2B8ue170006ENS_18__default_init_tagE, symObjAddr: 0x8FD8, symBinAddr: 0x10000B0D0, symSize: 0x2C }
  - { offsetInCU: 0x16278, offset: 0x16278, size: 0x8, addend: 0x0, symName: __ZNSt3__19allocatorI4RentEC2B8ue170006Ev, symObjAddr: 0x9004, symBinAddr: 0x10000B0FC, symSize: 0x2C }
  - { offsetInCU: 0x162A2, offset: 0x162A2, size: 0x8, addend: 0x0, symName: __ZNSt3__116__non_trivial_ifILb1ENS_9allocatorI4RentEEEC2B8ue170006Ev, symObjAddr: 0x9030, symBinAddr: 0x10000B128, symSize: 0x14 }
  - { offsetInCU: 0x162CC, offset: 0x162CC, size: 0x8, addend: 0x0, symName: __ZNSt3__15dequeI4RentNS_9allocatorIS1_EEE4backEv, symObjAddr: 0x9044, symBinAddr: 0x10000B13C, symSize: 0x70 }
  - { offsetInCU: 0x16303, offset: 0x16303, size: 0x8, addend: 0x0, symName: __ZNSt3__15dequeI4RentNS_9allocatorIS1_EEE8pop_backEv, symObjAddr: 0x90B4, symBinAddr: 0x10000B1AC, symSize: 0xE8 }
  - { offsetInCU: 0x16367, offset: 0x16367, size: 0x8, addend: 0x0, symName: __ZNKSt3__15dequeI4RentNS_9allocatorIS1_EEE22__annotate_shrink_backB8ue170006Emm, symObjAddr: 0x919C, symBinAddr: 0x10000B294, symSize: 0x60 }
  - { offsetInCU: 0x163AB, offset: 0x163AB, size: 0x8, addend: 0x0, symName: __ZNSt3__15dequeI4RentNS_9allocatorIS1_EEE25__maybe_remove_back_spareB8ue170006Eb, symObjAddr: 0x91FC, symBinAddr: 0x10000B2F4, symSize: 0xE8 }
  - { offsetInCU: 0x163E0, offset: 0x163E0, size: 0x8, addend: 0x0, symName: __ZNKSt3__15dequeI4RentNS_9allocatorIS1_EEE19__back_spare_blocksB8ue170006Ev, symObjAddr: 0x92E4, symBinAddr: 0x10000B3DC, symSize: 0x2C }
  - { offsetInCU: 0x16406, offset: 0x16406, size: 0x8, addend: 0x0, symName: __ZNSt3__114__split_bufferIP4RentNS_9allocatorIS2_EEE4backB8ue170006Ev, symObjAddr: 0x9310, symBinAddr: 0x10000B408, symSize: 0x1C }
  - { offsetInCU: 0x1642C, offset: 0x1642C, size: 0x8, addend: 0x0, symName: __ZNSt3__114__split_bufferIP4RentNS_9allocatorIS2_EEE8pop_backB8ue170006Ev, symObjAddr: 0x932C, symBinAddr: 0x10000B424, symSize: 0x2C }
  - { offsetInCU: 0x16452, offset: 0x16452, size: 0x8, addend: 0x0, symName: __ZNSt3__15stackI4RentNS_5dequeIS1_NS_9allocatorIS1_EEEEEC2B8ue170006ERKS6_, symObjAddr: 0x9358, symBinAddr: 0x10000B450, symSize: 0x34 }
  - { offsetInCU: 0x1648A, offset: 0x1648A, size: 0x8, addend: 0x0, symName: __ZNSt3__15dequeI4RentNS_9allocatorIS1_EEEC1ERKS4_, symObjAddr: 0x938C, symBinAddr: 0x10000B484, symSize: 0x34 }
  - { offsetInCU: 0x164C5, offset: 0x164C5, size: 0x8, addend: 0x0, symName: __ZNSt3__15dequeI4RentNS_9allocatorIS1_EEEC2ERKS4_, symObjAddr: 0x93C0, symBinAddr: 0x10000B4B8, symSize: 0xF8 }
  - { offsetInCU: 0x16500, offset: 0x16500, size: 0x8, addend: 0x0, symName: __ZNSt3__116allocator_traitsINS_9allocatorI4RentEEE37select_on_container_copy_constructionB8ue170006IS3_vvEES3_RKS3_, symObjAddr: 0x94B8, symBinAddr: 0x10000B5B0, symSize: 0x10 }
  - { offsetInCU: 0x1652F, offset: 0x1652F, size: 0x8, addend: 0x0, symName: __ZNKSt3__15dequeI4RentNS_9allocatorIS1_EEE7__allocB8ue170006Ev, symObjAddr: 0x94C8, symBinAddr: 0x10000B5C0, symSize: 0x28 }
  - { offsetInCU: 0x16555, offset: 0x16555, size: 0x8, addend: 0x0, symName: __ZNSt3__19allocatorIP4RentEC1B8ue170006IS1_EERKNS0_IT_EE, symObjAddr: 0x94F0, symBinAddr: 0x10000B5E8, symSize: 0x34 }
  - { offsetInCU: 0x16592, offset: 0x16592, size: 0x8, addend: 0x0, symName: __ZNSt3__114__split_bufferIP4RentNS_9allocatorIS2_EEEC1B8ue170006ERKS4_, symObjAddr: 0x9524, symBinAddr: 0x10000B61C, symSize: 0x34 }
  - { offsetInCU: 0x165CA, offset: 0x165CA, size: 0x8, addend: 0x0, symName: __ZNSt3__117__compressed_pairImNS_9allocatorI4RentEEEC1B8ue170006IiRNS1_IPS2_EEEEOT_OT0_, symObjAddr: 0x9558, symBinAddr: 0x10000B650, symSize: 0x3C }
  - { offsetInCU: 0x16627, offset: 0x16627, size: 0x8, addend: 0x0, symName: __ZNSt3__15dequeI4RentNS_9allocatorIS1_EEE8__appendINS_16__deque_iteratorIS1_PKS1_RS7_PKS8_lLl341EEEEEvT_SD_PNS_9enable_ifIXsr31__has_forward_iterator_categoryISD_EE5valueEvE4typeE, symObjAddr: 0x9594, symBinAddr: 0x10000B68C, symSize: 0x78 }
  - { offsetInCU: 0x16681, offset: 0x16681, size: 0x8, addend: 0x0, symName: __ZNKSt3__15dequeI4RentNS_9allocatorIS1_EEE5beginB8ue170006Ev, symObjAddr: 0x960C, symBinAddr: 0x10000B704, symSize: 0xB0 }
  - { offsetInCU: 0x166B6, offset: 0x166B6, size: 0x8, addend: 0x0, symName: __ZNKSt3__15dequeI4RentNS_9allocatorIS1_EEE3endB8ue170006Ev, symObjAddr: 0x96BC, symBinAddr: 0x10000B7B4, symSize: 0xC4 }
  - { offsetInCU: 0x166FA, offset: 0x166FA, size: 0x8, addend: 0x0, symName: __ZNKSt3__117__compressed_pairImNS_9allocatorI4RentEEE6secondB8ue170006Ev, symObjAddr: 0x9780, symBinAddr: 0x10000B878, symSize: 0x24 }
  - { offsetInCU: 0x16720, offset: 0x16720, size: 0x8, addend: 0x0, symName: __ZNKSt3__122__compressed_pair_elemINS_9allocatorI4RentEELi1ELb1EE5__getB8ue170006Ev, symObjAddr: 0x97A4, symBinAddr: 0x10000B89C, symSize: 0x14 }
  - { offsetInCU: 0x16746, offset: 0x16746, size: 0x8, addend: 0x0, symName: __ZNSt3__19allocatorIP4RentEC2B8ue170006IS1_EERKNS0_IT_EE, symObjAddr: 0x97B8, symBinAddr: 0x10000B8B0, symSize: 0x30 }
  - { offsetInCU: 0x16783, offset: 0x16783, size: 0x8, addend: 0x0, symName: __ZNSt3__114__split_bufferIP4RentNS_9allocatorIS2_EEEC2B8ue170006ERKS4_, symObjAddr: 0x97E8, symBinAddr: 0x10000B8E0, symSize: 0x4C }
  - { offsetInCU: 0x167BB, offset: 0x167BB, size: 0x8, addend: 0x0, symName: __ZNSt3__117__compressed_pairIPP4RentNS_9allocatorIS2_EEEC1B8ue170006IDnRKS5_EEOT_OT0_, symObjAddr: 0x9834, symBinAddr: 0x10000B92C, symSize: 0x3C }
  - { offsetInCU: 0x16813, offset: 0x16813, size: 0x8, addend: 0x0, symName: __ZNSt3__117__compressed_pairIPP4RentNS_9allocatorIS2_EEEC2B8ue170006IDnRKS5_EEOT_OT0_, symObjAddr: 0x9870, symBinAddr: 0x10000B968, symSize: 0x44 }
  - { offsetInCU: 0x1686B, offset: 0x1686B, size: 0x8, addend: 0x0, symName: __ZNSt3__122__compressed_pair_elemINS_9allocatorIP4RentEELi1ELb1EEC2B8ue170006IRKS4_vEEOT_, symObjAddr: 0x98B4, symBinAddr: 0x10000B9AC, symSize: 0x18 }
  - { offsetInCU: 0x168AD, offset: 0x168AD, size: 0x8, addend: 0x0, symName: __ZNSt3__117__compressed_pairImNS_9allocatorI4RentEEEC2B8ue170006IiRNS1_IPS2_EEEEOT_OT0_, symObjAddr: 0x98CC, symBinAddr: 0x10000B9C4, symSize: 0x44 }
  - { offsetInCU: 0x16905, offset: 0x16905, size: 0x8, addend: 0x0, symName: __ZNSt3__122__compressed_pair_elemINS_9allocatorI4RentEELi1ELb1EEC2B8ue170006IRNS1_IPS2_EEvEEOT_, symObjAddr: 0x9910, symBinAddr: 0x10000BA08, symSize: 0x34 }
  - { offsetInCU: 0x16947, offset: 0x16947, size: 0x8, addend: 0x0, symName: __ZNSt3__19allocatorI4RentEC2B8ue170006IPS1_EERKNS0_IT_EE, symObjAddr: 0x9944, symBinAddr: 0x10000BA3C, symSize: 0x30 }
  - { offsetInCU: 0x16984, offset: 0x16984, size: 0x8, addend: 0x0, symName: __ZNSt3__15dequeI4RentNS_9allocatorIS1_EEE18__append_with_sizeB8ue170006INS_16__deque_iteratorIS1_PKS1_RS7_PKS8_lLl341EEEEEvT_m, symObjAddr: 0x9974, symBinAddr: 0x10000BA6C, symSize: 0x21C }
  - { offsetInCU: 0x16A56, offset: 0x16A56, size: 0x8, addend: 0x0, symName: __ZNSt3__15dequeI4RentNS_9allocatorIS1_EEE19__add_back_capacityEm, symObjAddr: 0x9BDC, symBinAddr: 0x10000BCD4, symSize: 0x640 }
  - { offsetInCU: 0x16B5B, offset: 0x16B5B, size: 0x8, addend: 0x0, symName: __ZNKSt3__116__deque_iteratorI4RentPS1_RS1_PS2_lLl341EEplB8ue170006El, symObjAddr: 0xA21C, symBinAddr: 0x10000C314, symSize: 0x40 }
  - { offsetInCU: 0x16BC2, offset: 0x16BC2, size: 0x8, addend: 0x0, symName: __ZNSt3__15dequeI4RentNS_9allocatorIS1_EEE13__deque_rangeC1B8ue170006ENS_16__deque_iteratorIS1_PS1_RS1_PS7_lLl341EEESA_, symObjAddr: 0xA25C, symBinAddr: 0x10000C354, symSize: 0x4C }
  - { offsetInCU: 0x16C0A, offset: 0x16C0A, size: 0x8, addend: 0x0, symName: __ZNKSt3__15dequeI4RentNS_9allocatorIS1_EEE13__deque_range5beginB8ue170006Ev, symObjAddr: 0xA2A8, symBinAddr: 0x10000C3A0, symSize: 0x24 }
  - { offsetInCU: 0x16C30, offset: 0x16C30, size: 0x8, addend: 0x0, symName: __ZNKSt3__15dequeI4RentNS_9allocatorIS1_EEE13__deque_range3endB8ue170006Ev, symObjAddr: 0xA2CC, symBinAddr: 0x10000C3C4, symSize: 0x50 }
  - { offsetInCU: 0x16C56, offset: 0x16C56, size: 0x8, addend: 0x0, symName: __ZNKSt3__15dequeI4RentNS_9allocatorIS1_EEE13__deque_rangedeB8ue170006Ev, symObjAddr: 0xA350, symBinAddr: 0x10000C448, symSize: 0x7C }
  - { offsetInCU: 0x16C90, offset: 0x16C90, size: 0x8, addend: 0x0, symName: __ZNSt3__15dequeI4RentNS_9allocatorIS1_EEE21_ConstructTransactionC1B8ue170006EPS4_RNS4_19__deque_block_rangeE, symObjAddr: 0xA3CC, symBinAddr: 0x10000C4C4, symSize: 0x3C }
  - { offsetInCU: 0x16CD8, offset: 0x16CD8, size: 0x8, addend: 0x0, symName: __ZNKSt3__116__deque_iteratorI4RentPKS1_RS2_PKS3_lLl341EEdeB8ue170006Ev, symObjAddr: 0xA408, symBinAddr: 0x10000C500, symSize: 0x18 }
  - { offsetInCU: 0x16CFE, offset: 0x16CFE, size: 0x8, addend: 0x0, symName: __ZNSt3__116__deque_iteratorI4RentPKS1_RS2_PKS3_lLl341EEppB8ue170006Ev, symObjAddr: 0xA420, symBinAddr: 0x10000C518, symSize: 0x70 }
  - { offsetInCU: 0x16D24, offset: 0x16D24, size: 0x8, addend: 0x0, symName: __ZNSt3__15dequeI4RentNS_9allocatorIS1_EEE21_ConstructTransactionD1B8ue170006Ev, symObjAddr: 0xA490, symBinAddr: 0x10000C588, symSize: 0x2C }
  - { offsetInCU: 0x16D4E, offset: 0x16D4E, size: 0x8, addend: 0x0, symName: __ZNSt3__15dequeI4RentNS_9allocatorIS1_EEE13__deque_rangeppB8ue170006Ev, symObjAddr: 0xA4BC, symBinAddr: 0x10000C5B4, symSize: 0x64 }
  - { offsetInCU: 0x16D74, offset: 0x16D74, size: 0x8, addend: 0x0, symName: __ZNSt3__15dequeI4RentNS_9allocatorIS1_EEE18__recommend_blocksB8ue170006Em, symObjAddr: 0xA520, symBinAddr: 0x10000C618, symSize: 0x40 }
  - { offsetInCU: 0x16D98, offset: 0x16D98, size: 0x8, addend: 0x0, symName: __ZNSt3__114__split_bufferIP4RentRNS_9allocatorIS2_EEE4backB8ue170006Ev, symObjAddr: 0xA58C, symBinAddr: 0x10000C684, symSize: 0x1C }
  - { offsetInCU: 0x16DBE, offset: 0x16DBE, size: 0x8, addend: 0x0, symName: __ZNSt3__114__split_bufferIP4RentRNS_9allocatorIS2_EEE5beginB8ue170006Ev, symObjAddr: 0xA5A8, symBinAddr: 0x10000C6A0, symSize: 0x18 }
  - { offsetInCU: 0x16DE4, offset: 0x16DE4, size: 0x8, addend: 0x0, symName: __ZNSt3__114__split_bufferIP4RentRNS_9allocatorIS2_EEE3endB8ue170006Ev, symObjAddr: 0xA5C0, symBinAddr: 0x10000C6B8, symSize: 0x18 }
  - { offsetInCU: 0x16E0A, offset: 0x16E0A, size: 0x8, addend: 0x0, symName: __ZNSt3__114__split_bufferIP4RentRNS_9allocatorIS2_EEE9push_backB8ue170006ERKS2_, symObjAddr: 0xA5D8, symBinAddr: 0x10000C6D0, symSize: 0x260 }
  - { offsetInCU: 0x16E83, offset: 0x16E83, size: 0x8, addend: 0x0, symName: __ZNSt3__116__deque_iteratorI4RentPS1_RS1_PS2_lLl341EEpLB8ue170006El, symObjAddr: 0xA88C, symBinAddr: 0x10000C984, symSize: 0x120 }
  - { offsetInCU: 0x16ED6, offset: 0x16ED6, size: 0x8, addend: 0x0, symName: __ZNSt3__15dequeI4RentNS_9allocatorIS1_EEE13__deque_rangeC2B8ue170006ENS_16__deque_iteratorIS1_PS1_RS1_PS7_lLl341EEESA_, symObjAddr: 0xA9AC, symBinAddr: 0x10000CAA4, symSize: 0x34 }
  - { offsetInCU: 0x16F1E, offset: 0x16F1E, size: 0x8, addend: 0x0, symName: __ZNSt3__15dequeI4RentNS_9allocatorIS1_EEE19__deque_block_rangeC1B8ue170006EPS1_S6_, symObjAddr: 0xAA10, symBinAddr: 0x10000CB08, symSize: 0x3C }
  - { offsetInCU: 0x16F66, offset: 0x16F66, size: 0x8, addend: 0x0, symName: __ZNSt3__15dequeI4RentNS_9allocatorIS1_EEE19__deque_block_rangeC2B8ue170006EPS1_S6_, symObjAddr: 0xAA4C, symBinAddr: 0x10000CB44, symSize: 0x2C }
  - { offsetInCU: 0x16FAE, offset: 0x16FAE, size: 0x8, addend: 0x0, symName: __ZNSt3__15dequeI4RentNS_9allocatorIS1_EEE21_ConstructTransactionC2B8ue170006EPS4_RNS4_19__deque_block_rangeE, symObjAddr: 0xAA78, symBinAddr: 0x10000CB70, symSize: 0x48 }
  - { offsetInCU: 0x16FF6, offset: 0x16FF6, size: 0x8, addend: 0x0, symName: __ZNSt3__15dequeI4RentNS_9allocatorIS1_EEE21_ConstructTransactionD2B8ue170006Ev, symObjAddr: 0xAAC0, symBinAddr: 0x10000CBB8, symSize: 0x5C }
  - { offsetInCU: 0x17020, offset: 0x17020, size: 0x8, addend: 0x0, symName: __ZNSt3__116__deque_iteratorI4RentPKS1_RS2_PKS3_lLl341EEC1B8ue170006ES6_S3_, symObjAddr: 0xAC68, symBinAddr: 0x10000CD60, symSize: 0x3C }
  - { offsetInCU: 0x17068, offset: 0x17068, size: 0x8, addend: 0x0, symName: __ZNSt3__116__deque_iteratorI4RentPKS1_RS2_PKS3_lLl341EEC2B8ue170006ES6_S3_, symObjAddr: 0xACA4, symBinAddr: 0x10000CD9C, symSize: 0x2C }
  - { offsetInCU: 0x170B0, offset: 0x170B0, size: 0x8, addend: 0x0, symName: __ZNSt3__16vectorIiNS_9allocatorIiEEEC2B8ue170006Ev, symObjAddr: 0xACD0, symBinAddr: 0x10000CDC8, symSize: 0x4C }
  - { offsetInCU: 0x170DA, offset: 0x170DA, size: 0x8, addend: 0x0, symName: __ZNSt3__117__compressed_pairIPiNS_9allocatorIiEEEC1B8ue170006IDnNS_18__default_init_tagEEEOT_OT0_, symObjAddr: 0xAD1C, symBinAddr: 0x10000CE14, symSize: 0x3C }
  - { offsetInCU: 0x17132, offset: 0x17132, size: 0x8, addend: 0x0, symName: __ZNSt3__117__compressed_pairIPiNS_9allocatorIiEEEC2B8ue170006IDnNS_18__default_init_tagEEEOT_OT0_, symObjAddr: 0xAD58, symBinAddr: 0x10000CE50, symSize: 0x40 }
  - { offsetInCU: 0x1718A, offset: 0x1718A, size: 0x8, addend: 0x0, symName: __ZNSt3__122__compressed_pair_elemIPiLi0ELb0EEC2B8ue170006IDnvEEOT_, symObjAddr: 0xAD98, symBinAddr: 0x10000CE90, symSize: 0x1C }
  - { offsetInCU: 0x171CC, offset: 0x171CC, size: 0x8, addend: 0x0, symName: __ZNSt3__122__compressed_pair_elemINS_9allocatorIiEELi1ELb1EEC2B8ue170006ENS_18__default_init_tagE, symObjAddr: 0xADB4, symBinAddr: 0x10000CEAC, symSize: 0x2C }
  - { offsetInCU: 0x17200, offset: 0x17200, size: 0x8, addend: 0x0, symName: __ZNSt3__19allocatorIiEC2B8ue170006Ev, symObjAddr: 0xADE0, symBinAddr: 0x10000CED8, symSize: 0x2C }
  - { offsetInCU: 0x1722A, offset: 0x1722A, size: 0x8, addend: 0x0, symName: __ZNSt3__116__non_trivial_ifILb1ENS_9allocatorIiEEEC2B8ue170006Ev, symObjAddr: 0xAE0C, symBinAddr: 0x10000CF04, symSize: 0x14 }
  - { offsetInCU: 0x17254, offset: 0x17254, size: 0x8, addend: 0x0, symName: __ZNSt3__16vectorIiNS_9allocatorIiEEED2B8ue170006Ev, symObjAddr: 0xAE20, symBinAddr: 0x10000CF18, symSize: 0x44 }
  - { offsetInCU: 0x1727E, offset: 0x1727E, size: 0x8, addend: 0x0, symName: __ZNSt3__16vectorIiNS_9allocatorIiEEE16__destroy_vectorC1B8ue170006ERS3_, symObjAddr: 0xAE64, symBinAddr: 0x10000CF5C, symSize: 0x34 }
  - { offsetInCU: 0x172B7, offset: 0x172B7, size: 0x8, addend: 0x0, symName: __ZNSt3__16vectorIiNS_9allocatorIiEEE16__destroy_vectorclB8ue170006Ev, symObjAddr: 0xAE98, symBinAddr: 0x10000CF90, symSize: 0x90 }
  - { offsetInCU: 0x172DD, offset: 0x172DD, size: 0x8, addend: 0x0, symName: __ZNSt3__16vectorIiNS_9allocatorIiEEE16__destroy_vectorC2B8ue170006ERS3_, symObjAddr: 0xAF28, symBinAddr: 0x10000D020, symSize: 0x20 }
  - { offsetInCU: 0x17316, offset: 0x17316, size: 0x8, addend: 0x0, symName: __ZNSt3__16vectorIiNS_9allocatorIiEEE7__clearB8ue170006Ev, symObjAddr: 0xAF48, symBinAddr: 0x10000D040, symSize: 0x28 }
  - { offsetInCU: 0x1733C, offset: 0x1733C, size: 0x8, addend: 0x0, symName: __ZNKSt3__16vectorIiNS_9allocatorIiEEE17__annotate_deleteB8ue170006Ev, symObjAddr: 0xAF70, symBinAddr: 0x10000D068, symSize: 0xB8 }
  - { offsetInCU: 0x17362, offset: 0x17362, size: 0x8, addend: 0x0, symName: __ZNSt3__116allocator_traitsINS_9allocatorIiEEE10deallocateB8ue170006ERS2_Pim, symObjAddr: 0xB028, symBinAddr: 0x10000D120, symSize: 0x34 }
  - { offsetInCU: 0x173A4, offset: 0x173A4, size: 0x8, addend: 0x0, symName: __ZNSt3__16vectorIiNS_9allocatorIiEEE7__allocB8ue170006Ev, symObjAddr: 0xB05C, symBinAddr: 0x10000D154, symSize: 0x28 }
  - { offsetInCU: 0x173CA, offset: 0x173CA, size: 0x8, addend: 0x0, symName: __ZNKSt3__16vectorIiNS_9allocatorIiEEE8capacityB8ue170006Ev, symObjAddr: 0xB084, symBinAddr: 0x10000D17C, symSize: 0x40 }
  - { offsetInCU: 0x173F0, offset: 0x173F0, size: 0x8, addend: 0x0, symName: __ZNSt3__16vectorIiNS_9allocatorIiEEE22__base_destruct_at_endB8ue170006EPi, symObjAddr: 0xB0C4, symBinAddr: 0x10000D1BC, symSize: 0x8C }
  - { offsetInCU: 0x17434, offset: 0x17434, size: 0x8, addend: 0x0, symName: __ZNSt3__116allocator_traitsINS_9allocatorIiEEE7destroyB8ue170006IivEEvRS2_PT_, symObjAddr: 0xB150, symBinAddr: 0x10000D248, symSize: 0x2C }
  - { offsetInCU: 0x17471, offset: 0x17471, size: 0x8, addend: 0x0, symName: __ZNSt3__19allocatorIiE7destroyB8ue170006EPi, symObjAddr: 0xB190, symBinAddr: 0x10000D288, symSize: 0x14 }
  - { offsetInCU: 0x174A5, offset: 0x174A5, size: 0x8, addend: 0x0, symName: __ZNKSt3__16vectorIiNS_9allocatorIiEEE31__annotate_contiguous_containerB8ue170006EPKvS5_S5_S5_, symObjAddr: 0xB1A4, symBinAddr: 0x10000D29C, symSize: 0x20 }
  - { offsetInCU: 0x174F7, offset: 0x174F7, size: 0x8, addend: 0x0, symName: __ZNKSt3__16vectorIiNS_9allocatorIiEEE4dataB8ue170006Ev, symObjAddr: 0xB1C4, symBinAddr: 0x10000D2BC, symSize: 0x28 }
  - { offsetInCU: 0x1751D, offset: 0x1751D, size: 0x8, addend: 0x0, symName: __ZNKSt3__16vectorIiNS_9allocatorIiEEE4sizeB8ue170006Ev, symObjAddr: 0xB1EC, symBinAddr: 0x10000D2E4, symSize: 0x28 }
  - { offsetInCU: 0x17543, offset: 0x17543, size: 0x8, addend: 0x0, symName: __ZNSt3__19allocatorIiE10deallocateB8ue170006EPim, symObjAddr: 0xB214, symBinAddr: 0x10000D30C, symSize: 0x40 }
  - { offsetInCU: 0x17585, offset: 0x17585, size: 0x8, addend: 0x0, symName: __ZNSt3__117__compressed_pairIPiNS_9allocatorIiEEE6secondB8ue170006Ev, symObjAddr: 0xB254, symBinAddr: 0x10000D34C, symSize: 0x24 }
  - { offsetInCU: 0x175AB, offset: 0x175AB, size: 0x8, addend: 0x0, symName: __ZNSt3__122__compressed_pair_elemINS_9allocatorIiEELi1ELb1EE5__getB8ue170006Ev, symObjAddr: 0xB278, symBinAddr: 0x10000D370, symSize: 0x14 }
  - { offsetInCU: 0x175D1, offset: 0x175D1, size: 0x8, addend: 0x0, symName: __ZNKSt3__16vectorIiNS_9allocatorIiEEE9__end_capB8ue170006Ev, symObjAddr: 0xB28C, symBinAddr: 0x10000D384, symSize: 0x28 }
  - { offsetInCU: 0x175F7, offset: 0x175F7, size: 0x8, addend: 0x0, symName: __ZNKSt3__117__compressed_pairIPiNS_9allocatorIiEEE5firstB8ue170006Ev, symObjAddr: 0xB2B4, symBinAddr: 0x10000D3AC, symSize: 0x24 }
  - { offsetInCU: 0x1761D, offset: 0x1761D, size: 0x8, addend: 0x0, symName: __ZNKSt3__122__compressed_pair_elemIPiLi0ELb0EE5__getB8ue170006Ev, symObjAddr: 0xB2D8, symBinAddr: 0x10000D3D0, symSize: 0x14 }
  - { offsetInCU: 0x17643, offset: 0x17643, size: 0x8, addend: 0x0, symName: __ZNSt3__16vectorIiNS_9allocatorIiEEE9__end_capB8ue170006Ev, symObjAddr: 0xB2EC, symBinAddr: 0x10000D3E4, symSize: 0x28 }
  - { offsetInCU: 0x17669, offset: 0x17669, size: 0x8, addend: 0x0, symName: __ZNSt3__16vectorIiNS_9allocatorIiEEE22__construct_one_at_endB8ue170006IJiEEEvDpOT_, symObjAddr: 0xB314, symBinAddr: 0x10000D40C, symSize: 0x90 }
  - { offsetInCU: 0x176B8, offset: 0x176B8, size: 0x8, addend: 0x0, symName: __ZNSt3__16vectorIiNS_9allocatorIiEEE21__push_back_slow_pathIiEEvOT_, symObjAddr: 0xB3A4, symBinAddr: 0x10000D49C, symSize: 0xD8 }
  - { offsetInCU: 0x17716, offset: 0x17716, size: 0x8, addend: 0x0, symName: __ZNSt3__117__compressed_pairIPiNS_9allocatorIiEEE5firstB8ue170006Ev, symObjAddr: 0xB47C, symBinAddr: 0x10000D574, symSize: 0x24 }
  - { offsetInCU: 0x1773C, offset: 0x1773C, size: 0x8, addend: 0x0, symName: __ZNSt3__122__compressed_pair_elemIPiLi0ELb0EE5__getB8ue170006Ev, symObjAddr: 0xB4A0, symBinAddr: 0x10000D598, symSize: 0x14 }
  - { offsetInCU: 0x1777B, offset: 0x1777B, size: 0x8, addend: 0x0, symName: __ZNSt3__16vectorIiNS_9allocatorIiEEE21_ConstructTransactionC1B8ue170006ERS3_m, symObjAddr: 0xB4B4, symBinAddr: 0x10000D5AC, symSize: 0x3C }
  - { offsetInCU: 0x177C3, offset: 0x177C3, size: 0x8, addend: 0x0, symName: __ZNSt3__116allocator_traitsINS_9allocatorIiEEE9constructB8ue170006IiJiEvEEvRS2_PT_DpOT0_, symObjAddr: 0xB4F0, symBinAddr: 0x10000D5E8, symSize: 0x34 }
  - { offsetInCU: 0x1781A, offset: 0x1781A, size: 0x8, addend: 0x0, symName: __ZNSt3__16vectorIiNS_9allocatorIiEEE21_ConstructTransactionD1B8ue170006Ev, symObjAddr: 0xB524, symBinAddr: 0x10000D61C, symSize: 0x2C }
  - { offsetInCU: 0x17844, offset: 0x17844, size: 0x8, addend: 0x0, symName: __ZNSt3__16vectorIiNS_9allocatorIiEEE21_ConstructTransactionC2B8ue170006ERS3_m, symObjAddr: 0xB550, symBinAddr: 0x10000D648, symSize: 0x44 }
  - { offsetInCU: 0x1788C, offset: 0x1788C, size: 0x8, addend: 0x0, symName: __ZNSt3__19allocatorIiE9constructB8ue170006IiJiEEEvPT_DpOT0_, symObjAddr: 0xB594, symBinAddr: 0x10000D68C, symSize: 0x28 }
  - { offsetInCU: 0x178E2, offset: 0x178E2, size: 0x8, addend: 0x0, symName: __ZNSt3__16vectorIiNS_9allocatorIiEEE21_ConstructTransactionD2B8ue170006Ev, symObjAddr: 0xB5BC, symBinAddr: 0x10000D6B4, symSize: 0x20 }
  - { offsetInCU: 0x1790C, offset: 0x1790C, size: 0x8, addend: 0x0, symName: __ZNKSt3__16vectorIiNS_9allocatorIiEEE11__recommendB8ue170006Em, symObjAddr: 0xB5DC, symBinAddr: 0x10000D6D4, symSize: 0xB4 }
  - { offsetInCU: 0x17961, offset: 0x17961, size: 0x8, addend: 0x0, symName: __ZNSt3__114__split_bufferIiRNS_9allocatorIiEEEC1EmmS3_, symObjAddr: 0xB690, symBinAddr: 0x10000D788, symSize: 0x44 }
  - { offsetInCU: 0x179B7, offset: 0x179B7, size: 0x8, addend: 0x0, symName: __ZNSt3__114__split_bufferIiRNS_9allocatorIiEEED1Ev, symObjAddr: 0xB7E4, symBinAddr: 0x10000D8DC, symSize: 0x2C }
  - { offsetInCU: 0x179E3, offset: 0x179E3, size: 0x8, addend: 0x0, symName: __ZNKSt3__16vectorIiNS_9allocatorIiEEE8max_sizeEv, symObjAddr: 0xB810, symBinAddr: 0x10000D908, symSize: 0x60 }
  - { offsetInCU: 0x17A0B, offset: 0x17A0B, size: 0x8, addend: 0x0, symName: __ZNKSt3__16vectorIiNS_9allocatorIiEEE20__throw_length_errorB8ue170006Ev, symObjAddr: 0xB870, symBinAddr: 0x10000D968, symSize: 0x1C }
  - { offsetInCU: 0x17A3B, offset: 0x17A3B, size: 0x8, addend: 0x0, symName: __ZNSt3__116allocator_traitsINS_9allocatorIiEEE8max_sizeB8ue170006IS2_vEEmRKS2_, symObjAddr: 0xB88C, symBinAddr: 0x10000D984, symSize: 0x24 }
  - { offsetInCU: 0x17A69, offset: 0x17A69, size: 0x8, addend: 0x0, symName: __ZNKSt3__16vectorIiNS_9allocatorIiEEE7__allocB8ue170006Ev, symObjAddr: 0xB8B0, symBinAddr: 0x10000D9A8, symSize: 0x28 }
  - { offsetInCU: 0x17A8F, offset: 0x17A8F, size: 0x8, addend: 0x0, symName: __ZNKSt3__19allocatorIiE8max_sizeB8ue170006Ev, symObjAddr: 0xB8D8, symBinAddr: 0x10000D9D0, symSize: 0x14 }
  - { offsetInCU: 0x17AB5, offset: 0x17AB5, size: 0x8, addend: 0x0, symName: __ZNKSt3__117__compressed_pairIPiNS_9allocatorIiEEE6secondB8ue170006Ev, symObjAddr: 0xB8EC, symBinAddr: 0x10000D9E4, symSize: 0x24 }
  - { offsetInCU: 0x17ADB, offset: 0x17ADB, size: 0x8, addend: 0x0, symName: __ZNKSt3__122__compressed_pair_elemINS_9allocatorIiEELi1ELb1EE5__getB8ue170006Ev, symObjAddr: 0xB910, symBinAddr: 0x10000DA08, symSize: 0x14 }
  - { offsetInCU: 0x17B01, offset: 0x17B01, size: 0x8, addend: 0x0, symName: __ZNSt12length_errorC1B8ue170006EPKc, symObjAddr: 0xB988, symBinAddr: 0x10000DA80, symSize: 0x34 }
  - { offsetInCU: 0x17B39, offset: 0x17B39, size: 0x8, addend: 0x0, symName: __ZNSt12length_errorC2B8ue170006EPKc, symObjAddr: 0xB9BC, symBinAddr: 0x10000DAB4, symSize: 0x4C }
  - { offsetInCU: 0x17B71, offset: 0x17B71, size: 0x8, addend: 0x0, symName: __ZNSt3__114__split_bufferIiRNS_9allocatorIiEEEC2EmmS3_, symObjAddr: 0xBA08, symBinAddr: 0x10000DB00, symSize: 0xD4 }
  - { offsetInCU: 0x17BE5, offset: 0x17BE5, size: 0x8, addend: 0x0, symName: __ZNSt3__117__compressed_pairIPiRNS_9allocatorIiEEEC1B8ue170006IDnS4_EEOT_OT0_, symObjAddr: 0xBADC, symBinAddr: 0x10000DBD4, symSize: 0x3C }
  - { offsetInCU: 0x17C3D, offset: 0x17C3D, size: 0x8, addend: 0x0, symName: __ZNSt3__114__split_bufferIiRNS_9allocatorIiEEE7__allocB8ue170006Ev, symObjAddr: 0xBB58, symBinAddr: 0x10000DC50, symSize: 0x28 }
  - { offsetInCU: 0x17C63, offset: 0x17C63, size: 0x8, addend: 0x0, symName: __ZNSt3__114__split_bufferIiRNS_9allocatorIiEEE9__end_capB8ue170006Ev, symObjAddr: 0xBB80, symBinAddr: 0x10000DC78, symSize: 0x28 }
  - { offsetInCU: 0x17C89, offset: 0x17C89, size: 0x8, addend: 0x0, symName: __ZNSt3__117__compressed_pairIPiRNS_9allocatorIiEEEC2B8ue170006IDnS4_EEOT_OT0_, symObjAddr: 0xBBA8, symBinAddr: 0x10000DCA0, symSize: 0x48 }
  - { offsetInCU: 0x17CE1, offset: 0x17CE1, size: 0x8, addend: 0x0, symName: __ZNSt3__122__compressed_pair_elemIRNS_9allocatorIiEELi1ELb0EEC2B8ue170006IS3_vEEOT_, symObjAddr: 0xBBF0, symBinAddr: 0x10000DCE8, symSize: 0x20 }
  - { offsetInCU: 0x17D23, offset: 0x17D23, size: 0x8, addend: 0x0, symName: __ZNSt3__19allocatorIiE8allocateB8ue170006Em, symObjAddr: 0xBC10, symBinAddr: 0x10000DD08, symSize: 0x58 }
  - { offsetInCU: 0x17D57, offset: 0x17D57, size: 0x8, addend: 0x0, symName: __ZNSt3__117__compressed_pairIPiRNS_9allocatorIiEEE6secondB8ue170006Ev, symObjAddr: 0xBC68, symBinAddr: 0x10000DD60, symSize: 0x28 }
  - { offsetInCU: 0x17D7D, offset: 0x17D7D, size: 0x8, addend: 0x0, symName: __ZNSt3__122__compressed_pair_elemIRNS_9allocatorIiEELi1ELb0EE5__getB8ue170006Ev, symObjAddr: 0xBC90, symBinAddr: 0x10000DD88, symSize: 0x18 }
  - { offsetInCU: 0x17DA3, offset: 0x17DA3, size: 0x8, addend: 0x0, symName: __ZNSt3__117__compressed_pairIPiRNS_9allocatorIiEEE5firstB8ue170006Ev, symObjAddr: 0xBCA8, symBinAddr: 0x10000DDA0, symSize: 0x24 }
  - { offsetInCU: 0x17DC9, offset: 0x17DC9, size: 0x8, addend: 0x0, symName: __ZNSt3__116reverse_iteratorIPiEC1B8ue170006ES1_, symObjAddr: 0xBD44, symBinAddr: 0x10000DE3C, symSize: 0x34 }
  - { offsetInCU: 0x17E01, offset: 0x17E01, size: 0x8, addend: 0x0, symName: __ZNKSt3__116reverse_iteratorIPiE4baseB8ue170006Ev, symObjAddr: 0xBD78, symBinAddr: 0x10000DE70, symSize: 0x18 }
  - { offsetInCU: 0x17E27, offset: 0x17E27, size: 0x8, addend: 0x0, symName: __ZNKSt3__16vectorIiNS_9allocatorIiEEE14__annotate_newB8ue170006Em, symObjAddr: 0xBDCC, symBinAddr: 0x10000DEC4, symSize: 0xAC }
  - { offsetInCU: 0x17E7F, offset: 0x17E7F, size: 0x8, addend: 0x0, symName: __ZNKSt3__111__move_loopINS_17_ClassicAlgPolicyEEclB8ue170006INS_16reverse_iteratorIPiEES6_S6_EENS_4pairIT_T1_EES8_T0_S9_, symObjAddr: 0xC168, symBinAddr: 0x10000E260, symSize: 0xA0 }
  - { offsetInCU: 0x17EEA, offset: 0x17EEA, size: 0x8, addend: 0x0, symName: __ZNSt3__18_IterOpsINS_17_ClassicAlgPolicyEE11__iter_moveB8ue170006IRNS_16reverse_iteratorIPiEEEENS_9enable_ifIXsr12is_referenceIDTdeclsr3stdE7declvalIRT_EEEEE5valueEDTclsr3stdE4movedeclsr3stdE7declvalISA_EEEEE4typeEOS9_, symObjAddr: 0xC39C, symBinAddr: 0x10000E494, symSize: 0x28 }
  - { offsetInCU: 0x17F16, offset: 0x17F16, size: 0x8, addend: 0x0, symName: __ZNKSt3__116reverse_iteratorIPiEdeB8ue170006Ev, symObjAddr: 0xC3C4, symBinAddr: 0x10000E4BC, symSize: 0x28 }
  - { offsetInCU: 0x17F4A, offset: 0x17F4A, size: 0x8, addend: 0x0, symName: __ZNSt3__116reverse_iteratorIPiEppB8ue170006Ev, symObjAddr: 0xC3EC, symBinAddr: 0x10000E4E4, symSize: 0x20 }
  - { offsetInCU: 0x17F70, offset: 0x17F70, size: 0x8, addend: 0x0, symName: __ZNSt3__18_IterOpsINS_17_ClassicAlgPolicyEE25__validate_iter_referenceB8ue170006IRNS_16reverse_iteratorIPiEEEEvv, symObjAddr: 0xC40C, symBinAddr: 0x10000E504, symSize: 0x4 }
  - { offsetInCU: 0x17F8E, offset: 0x17F8E, size: 0x8, addend: 0x0, symName: __ZNSt3__118__unwrap_iter_implINS_16reverse_iteratorIPiEELb0EE8__unwrapB8ue170006ES3_, symObjAddr: 0xC410, symBinAddr: 0x10000E508, symSize: 0x24 }
  - { offsetInCU: 0x17FB6, offset: 0x17FB6, size: 0x8, addend: 0x0, symName: __ZNSt3__14pairINS_16reverse_iteratorIPiEES3_EC1B8ue170006IS3_S3_LPv0EEEOT_OT0_, symObjAddr: 0xC434, symBinAddr: 0x10000E52C, symSize: 0x3C }
  - { offsetInCU: 0x18014, offset: 0x18014, size: 0x8, addend: 0x0, symName: __ZNSt3__14pairINS_16reverse_iteratorIPiEES3_EC2B8ue170006IS3_S3_LPv0EEEOT_OT0_, symObjAddr: 0xC470, symBinAddr: 0x10000E568, symSize: 0x34 }
  - { offsetInCU: 0x18072, offset: 0x18072, size: 0x8, addend: 0x0, symName: __ZNSt3__118__unwrap_iter_implINS_16reverse_iteratorIPiEELb0EE8__rewrapB8ue170006ES3_S3_, symObjAddr: 0xC4A4, symBinAddr: 0x10000E59C, symSize: 0x2C }
  - { offsetInCU: 0x1809F, offset: 0x1809F, size: 0x8, addend: 0x0, symName: __ZNSt3__116reverse_iteratorIPiEC2B8ue170006ES1_, symObjAddr: 0xC4D0, symBinAddr: 0x10000E5C8, symSize: 0x28 }
  - { offsetInCU: 0x180D7, offset: 0x180D7, size: 0x8, addend: 0x0, symName: __ZNSt3__114__split_bufferIiRNS_9allocatorIiEEED2Ev, symObjAddr: 0xC4F8, symBinAddr: 0x10000E5F0, symSize: 0x8C }
  - { offsetInCU: 0x18103, offset: 0x18103, size: 0x8, addend: 0x0, symName: __ZNSt3__114__split_bufferIiRNS_9allocatorIiEEE5clearB8ue170006Ev, symObjAddr: 0xC584, symBinAddr: 0x10000E67C, symSize: 0x28 }
  - { offsetInCU: 0x18129, offset: 0x18129, size: 0x8, addend: 0x0, symName: __ZNKSt3__114__split_bufferIiRNS_9allocatorIiEEE8capacityB8ue170006Ev, symObjAddr: 0xC5AC, symBinAddr: 0x10000E6A4, symSize: 0x40 }
  - { offsetInCU: 0x1814F, offset: 0x1814F, size: 0x8, addend: 0x0, symName: __ZNSt3__114__split_bufferIiRNS_9allocatorIiEEE17__destruct_at_endB8ue170006EPi, symObjAddr: 0xC5EC, symBinAddr: 0x10000E6E4, symSize: 0x2C }
  - { offsetInCU: 0x18183, offset: 0x18183, size: 0x8, addend: 0x0, symName: __ZNSt3__114__split_bufferIiRNS_9allocatorIiEEE17__destruct_at_endB8ue170006EPiNS_17integral_constantIbLb0EEE, symObjAddr: 0xC618, symBinAddr: 0x10000E710, symSize: 0x80 }
  - { offsetInCU: 0x181C3, offset: 0x181C3, size: 0x8, addend: 0x0, symName: __ZNKSt3__114__split_bufferIiRNS_9allocatorIiEEE9__end_capB8ue170006Ev, symObjAddr: 0xC698, symBinAddr: 0x10000E790, symSize: 0x28 }
  - { offsetInCU: 0x181E9, offset: 0x181E9, size: 0x8, addend: 0x0, symName: __ZNKSt3__117__compressed_pairIPiRNS_9allocatorIiEEE5firstB8ue170006Ev, symObjAddr: 0xC6C0, symBinAddr: 0x10000E7B8, symSize: 0x24 }
  - { offsetInCU: 0x1820F, offset: 0x1820F, size: 0x8, addend: 0x0, symName: __ZNKSt3__19basic_iosIcNS_11char_traitsIcEEE4failB8ue170006Ev, symObjAddr: 0xC6E4, symBinAddr: 0x10000E7DC, symSize: 0x28 }
  - { offsetInCU: 0x18235, offset: 0x18235, size: 0x8, addend: 0x0, symName: __ZNKSt3__18ios_base4failB8ue170006Ev, symObjAddr: 0xC70C, symBinAddr: 0x10000E804, symSize: 0x28 }
  - { offsetInCU: 0x1825D, offset: 0x1825D, size: 0x8, addend: 0x0, symName: __ZNSt3__15queueI8CustomerNS_5dequeIS1_NS_9allocatorIS1_EEEEEC2B8ue170006Ev, symObjAddr: 0xC734, symBinAddr: 0x10000E82C, symSize: 0x2C }
  - { offsetInCU: 0x18287, offset: 0x18287, size: 0x8, addend: 0x0, symName: __ZNSt3__15dequeI8CustomerNS_9allocatorIS1_EEEC1B8ue170006Ev, symObjAddr: 0xC760, symBinAddr: 0x10000E858, symSize: 0x2C }
  - { offsetInCU: 0x182B1, offset: 0x182B1, size: 0x8, addend: 0x0, symName: __ZNSt3__15dequeI8CustomerNS_9allocatorIS1_EEEC2B8ue170006Ev, symObjAddr: 0xC78C, symBinAddr: 0x10000E884, symSize: 0x5C }
  - { offsetInCU: 0x182DB, offset: 0x182DB, size: 0x8, addend: 0x0, symName: __ZNSt3__114__split_bufferIP8CustomerNS_9allocatorIS2_EEEC1B8ue170006Ev, symObjAddr: 0xC7E8, symBinAddr: 0x10000E8E0, symSize: 0x2C }
  - { offsetInCU: 0x18305, offset: 0x18305, size: 0x8, addend: 0x0, symName: __ZNSt3__117__compressed_pairImNS_9allocatorI8CustomerEEEC1B8ue170006IiNS_18__default_init_tagEEEOT_OT0_, symObjAddr: 0xC814, symBinAddr: 0x10000E90C, symSize: 0x3C }
  - { offsetInCU: 0x1835D, offset: 0x1835D, size: 0x8, addend: 0x0, symName: __ZNSt3__114__split_bufferIP8CustomerNS_9allocatorIS2_EEEC2B8ue170006Ev, symObjAddr: 0xC850, symBinAddr: 0x10000E948, symSize: 0x50 }
  - { offsetInCU: 0x18387, offset: 0x18387, size: 0x8, addend: 0x0, symName: __ZNSt3__117__compressed_pairIPP8CustomerNS_9allocatorIS2_EEEC1B8ue170006IDnNS_18__default_init_tagEEEOT_OT0_, symObjAddr: 0xC8A0, symBinAddr: 0x10000E998, symSize: 0x3C }
  - { offsetInCU: 0x183DF, offset: 0x183DF, size: 0x8, addend: 0x0, symName: __ZNSt3__117__compressed_pairIPP8CustomerNS_9allocatorIS2_EEEC2B8ue170006IDnNS_18__default_init_tagEEEOT_OT0_, symObjAddr: 0xC8DC, symBinAddr: 0x10000E9D4, symSize: 0x40 }
  - { offsetInCU: 0x18437, offset: 0x18437, size: 0x8, addend: 0x0, symName: __ZNSt3__122__compressed_pair_elemIPP8CustomerLi0ELb0EEC2B8ue170006IDnvEEOT_, symObjAddr: 0xC91C, symBinAddr: 0x10000EA14, symSize: 0x1C }
  - { offsetInCU: 0x18479, offset: 0x18479, size: 0x8, addend: 0x0, symName: __ZNSt3__122__compressed_pair_elemINS_9allocatorIP8CustomerEELi1ELb1EEC2B8ue170006ENS_18__default_init_tagE, symObjAddr: 0xC938, symBinAddr: 0x10000EA30, symSize: 0x2C }
  - { offsetInCU: 0x184AD, offset: 0x184AD, size: 0x8, addend: 0x0, symName: __ZNSt3__19allocatorIP8CustomerEC2B8ue170006Ev, symObjAddr: 0xC964, symBinAddr: 0x10000EA5C, symSize: 0x2C }
  - { offsetInCU: 0x184D7, offset: 0x184D7, size: 0x8, addend: 0x0, symName: __ZNSt3__116__non_trivial_ifILb1ENS_9allocatorIP8CustomerEEEC2B8ue170006Ev, symObjAddr: 0xC990, symBinAddr: 0x10000EA88, symSize: 0x14 }
  - { offsetInCU: 0x18501, offset: 0x18501, size: 0x8, addend: 0x0, symName: __ZNSt3__117__compressed_pairImNS_9allocatorI8CustomerEEEC2B8ue170006IiNS_18__default_init_tagEEEOT_OT0_, symObjAddr: 0xC9A4, symBinAddr: 0x10000EA9C, symSize: 0x40 }
  - { offsetInCU: 0x18559, offset: 0x18559, size: 0x8, addend: 0x0, symName: __ZNSt3__122__compressed_pair_elemINS_9allocatorI8CustomerEELi1ELb1EEC2B8ue170006ENS_18__default_init_tagE, symObjAddr: 0xC9E4, symBinAddr: 0x10000EADC, symSize: 0x2C }
  - { offsetInCU: 0x1858D, offset: 0x1858D, size: 0x8, addend: 0x0, symName: __ZNSt3__19allocatorI8CustomerEC2B8ue170006Ev, symObjAddr: 0xCA10, symBinAddr: 0x10000EB08, symSize: 0x2C }
  - { offsetInCU: 0x185B7, offset: 0x185B7, size: 0x8, addend: 0x0, symName: __ZNSt3__116__non_trivial_ifILb1ENS_9allocatorI8CustomerEEEC2B8ue170006Ev, symObjAddr: 0xCA3C, symBinAddr: 0x10000EB34, symSize: 0x14 }
...
